Archive member included because of file (symbol)

d:/program files (x86)/microchip/xc32/v2.05/bin/bin/../../lib/gcc/pic32mx/4.8.3/../../../../pic32mx/lib/speed/micromips\libpic32.a(default-bootstrap-exception-handler.o)
                              d:/program files (x86)/microchip/xc32/v2.05/bin/bin/../../lib/gcc/pic32mx/4.8.3/../../../../pic32mx/lib/./proc/32MM0256GPM048/crt0_micromips.o (_bootstrap_exception_handler)
d:/program files (x86)/microchip/xc32/v2.05/bin/bin/../../lib/gcc/pic32mx/4.8.3/../../../../pic32mx/lib/speed/micromips\libpic32.a(default-on-reset.o)
                              d:/program files (x86)/microchip/xc32/v2.05/bin/bin/../../lib/gcc/pic32mx/4.8.3/../../../../pic32mx/lib/./proc/32MM0256GPM048/crt0_micromips.o (_on_reset)
d:/program files (x86)/microchip/xc32/v2.05/bin/bin/../../lib/gcc/pic32mx/4.8.3/../../../../pic32mx/lib/speed/micromips\libpic32.a(default-on-bootstrap.o)
                              d:/program files (x86)/microchip/xc32/v2.05/bin/bin/../../lib/gcc/pic32mx/4.8.3/../../../../pic32mx/lib/./proc/32MM0256GPM048/crt0_micromips.o (_on_bootstrap)
d:/program files (x86)/microchip/xc32/v2.05/bin/bin/../../lib/gcc/pic32mx/4.8.3/../../../../pic32mx/lib/speed/micromips\libpic32.a(default-nmi-handler.o)
                              d:/program files (x86)/microchip/xc32/v2.05/bin/bin/../../lib/gcc/pic32mx/4.8.3/../../../../pic32mx/lib/./proc/32MM0256GPM048/crt0_micromips.o (_nmi_handler)
d:/program files (x86)/microchip/xc32/v2.05/bin/bin/../../lib/gcc/pic32mx/4.8.3/../../../../pic32mx/lib/speed/micromips\libpic32.a(general-exception.o)
                              d:/program files (x86)/microchip/xc32/v2.05/bin/bin/../../lib/gcc/pic32mx/4.8.3/../../../../pic32mx/lib/./proc/32MM0256GPM048/crt0_micromips.o (_general_exception_context)
d:/program files (x86)/microchip/xc32/v2.05/bin/bin/../../lib/gcc/pic32mx/4.8.3/../../../../pic32mx/lib/speed/micromips\libpic32.a(vector1.o)
                              d:/program files (x86)/microchip/xc32/v2.05/bin/bin/../../lib/gcc/pic32mx/4.8.3/../../../../pic32mx/lib/./proc/32MM0256GPM048\default_isr_vectors.o (__vector_dispatch_1)
d:/program files (x86)/microchip/xc32/v2.05/bin/bin/../../lib/gcc/pic32mx/4.8.3/../../../../pic32mx/lib/speed/micromips\libpic32.a(vector2.o)
                              d:/program files (x86)/microchip/xc32/v2.05/bin/bin/../../lib/gcc/pic32mx/4.8.3/../../../../pic32mx/lib/./proc/32MM0256GPM048\default_isr_vectors.o (__vector_dispatch_2)
d:/program files (x86)/microchip/xc32/v2.05/bin/bin/../../lib/gcc/pic32mx/4.8.3/../../../../pic32mx/lib/speed/micromips\libpic32.a(vector3.o)
                              d:/program files (x86)/microchip/xc32/v2.05/bin/bin/../../lib/gcc/pic32mx/4.8.3/../../../../pic32mx/lib/./proc/32MM0256GPM048\default_isr_vectors.o (__vector_dispatch_3)
d:/program files (x86)/microchip/xc32/v2.05/bin/bin/../../lib/gcc/pic32mx/4.8.3/../../../../pic32mx/lib/speed/micromips\libpic32.a(vector4.o)
                              d:/program files (x86)/microchip/xc32/v2.05/bin/bin/../../lib/gcc/pic32mx/4.8.3/../../../../pic32mx/lib/./proc/32MM0256GPM048\default_isr_vectors.o (__vector_dispatch_4)
d:/program files (x86)/microchip/xc32/v2.05/bin/bin/../../lib/gcc/pic32mx/4.8.3/../../../../pic32mx/lib/speed/micromips\libpic32.a(vector5.o)
                              d:/program files (x86)/microchip/xc32/v2.05/bin/bin/../../lib/gcc/pic32mx/4.8.3/../../../../pic32mx/lib/./proc/32MM0256GPM048\default_isr_vectors.o (__vector_dispatch_5)
d:/program files (x86)/microchip/xc32/v2.05/bin/bin/../../lib/gcc/pic32mx/4.8.3/../../../../pic32mx/lib/speed/micromips\libpic32.a(vector6.o)
                              d:/program files (x86)/microchip/xc32/v2.05/bin/bin/../../lib/gcc/pic32mx/4.8.3/../../../../pic32mx/lib/./proc/32MM0256GPM048\default_isr_vectors.o (__vector_dispatch_6)
d:/program files (x86)/microchip/xc32/v2.05/bin/bin/../../lib/gcc/pic32mx/4.8.3/../../../../pic32mx/lib/speed/micromips\libpic32.a(vector7.o)
                              d:/program files (x86)/microchip/xc32/v2.05/bin/bin/../../lib/gcc/pic32mx/4.8.3/../../../../pic32mx/lib/./proc/32MM0256GPM048\default_isr_vectors.o (__vector_dispatch_7)
d:/program files (x86)/microchip/xc32/v2.05/bin/bin/../../lib/gcc/pic32mx/4.8.3/../../../../pic32mx/lib/speed/micromips\libpic32.a(vector12.o)
                              d:/program files (x86)/microchip/xc32/v2.05/bin/bin/../../lib/gcc/pic32mx/4.8.3/../../../../pic32mx/lib/./proc/32MM0256GPM048\default_isr_vectors.o (__vector_dispatch_12)
d:/program files (x86)/microchip/xc32/v2.05/bin/bin/../../lib/gcc/pic32mx/4.8.3/../../../../pic32mx/lib/speed/micromips\libpic32.a(vector13.o)
                              d:/program files (x86)/microchip/xc32/v2.05/bin/bin/../../lib/gcc/pic32mx/4.8.3/../../../../pic32mx/lib/./proc/32MM0256GPM048\default_isr_vectors.o (__vector_dispatch_13)
d:/program files (x86)/microchip/xc32/v2.05/bin/bin/../../lib/gcc/pic32mx/4.8.3/../../../../pic32mx/lib/speed/micromips\libpic32.a(vector14.o)
                              d:/program files (x86)/microchip/xc32/v2.05/bin/bin/../../lib/gcc/pic32mx/4.8.3/../../../../pic32mx/lib/./proc/32MM0256GPM048\default_isr_vectors.o (__vector_dispatch_14)
d:/program files (x86)/microchip/xc32/v2.05/bin/bin/../../lib/gcc/pic32mx/4.8.3/../../../../pic32mx/lib/speed/micromips\libpic32.a(vector15.o)
                              d:/program files (x86)/microchip/xc32/v2.05/bin/bin/../../lib/gcc/pic32mx/4.8.3/../../../../pic32mx/lib/./proc/32MM0256GPM048\default_isr_vectors.o (__vector_dispatch_15)
d:/program files (x86)/microchip/xc32/v2.05/bin/bin/../../lib/gcc/pic32mx/4.8.3/../../../../pic32mx/lib/speed/micromips\libpic32.a(vector16.o)
                              d:/program files (x86)/microchip/xc32/v2.05/bin/bin/../../lib/gcc/pic32mx/4.8.3/../../../../pic32mx/lib/./proc/32MM0256GPM048\default_isr_vectors.o (__vector_dispatch_16)
d:/program files (x86)/microchip/xc32/v2.05/bin/bin/../../lib/gcc/pic32mx/4.8.3/../../../../pic32mx/lib/speed/micromips\libpic32.a(vector18.o)
                              d:/program files (x86)/microchip/xc32/v2.05/bin/bin/../../lib/gcc/pic32mx/4.8.3/../../../../pic32mx/lib/./proc/32MM0256GPM048\default_isr_vectors.o (__vector_dispatch_18)
d:/program files (x86)/microchip/xc32/v2.05/bin/bin/../../lib/gcc/pic32mx/4.8.3/../../../../pic32mx/lib/speed/micromips\libpic32.a(vector19.o)
                              d:/program files (x86)/microchip/xc32/v2.05/bin/bin/../../lib/gcc/pic32mx/4.8.3/../../../../pic32mx/lib/./proc/32MM0256GPM048\default_isr_vectors.o (__vector_dispatch_19)
d:/program files (x86)/microchip/xc32/v2.05/bin/bin/../../lib/gcc/pic32mx/4.8.3/../../../../pic32mx/lib/speed/micromips\libpic32.a(vector20.o)
                              d:/program files (x86)/microchip/xc32/v2.05/bin/bin/../../lib/gcc/pic32mx/4.8.3/../../../../pic32mx/lib/./proc/32MM0256GPM048\default_isr_vectors.o (__vector_dispatch_20)
d:/program files (x86)/microchip/xc32/v2.05/bin/bin/../../lib/gcc/pic32mx/4.8.3/../../../../pic32mx/lib/speed/micromips\libpic32.a(vector21.o)
                              d:/program files (x86)/microchip/xc32/v2.05/bin/bin/../../lib/gcc/pic32mx/4.8.3/../../../../pic32mx/lib/./proc/32MM0256GPM048\default_isr_vectors.o (__vector_dispatch_21)
d:/program files (x86)/microchip/xc32/v2.05/bin/bin/../../lib/gcc/pic32mx/4.8.3/../../../../pic32mx/lib/speed/micromips\libpic32.a(vector22.o)
                              d:/program files (x86)/microchip/xc32/v2.05/bin/bin/../../lib/gcc/pic32mx/4.8.3/../../../../pic32mx/lib/./proc/32MM0256GPM048\default_isr_vectors.o (__vector_dispatch_22)
d:/program files (x86)/microchip/xc32/v2.05/bin/bin/../../lib/gcc/pic32mx/4.8.3/../../../../pic32mx/lib/speed/micromips\libpic32.a(vector23.o)
                              d:/program files (x86)/microchip/xc32/v2.05/bin/bin/../../lib/gcc/pic32mx/4.8.3/../../../../pic32mx/lib/./proc/32MM0256GPM048\default_isr_vectors.o (__vector_dispatch_23)
d:/program files (x86)/microchip/xc32/v2.05/bin/bin/../../lib/gcc/pic32mx/4.8.3/../../../../pic32mx/lib/speed/micromips\libpic32.a(vector24.o)
                              d:/program files (x86)/microchip/xc32/v2.05/bin/bin/../../lib/gcc/pic32mx/4.8.3/../../../../pic32mx/lib/./proc/32MM0256GPM048\default_isr_vectors.o (__vector_dispatch_24)
d:/program files (x86)/microchip/xc32/v2.05/bin/bin/../../lib/gcc/pic32mx/4.8.3/../../../../pic32mx/lib/speed/micromips\libpic32.a(vector25.o)
                              d:/program files (x86)/microchip/xc32/v2.05/bin/bin/../../lib/gcc/pic32mx/4.8.3/../../../../pic32mx/lib/./proc/32MM0256GPM048\default_isr_vectors.o (__vector_dispatch_25)
d:/program files (x86)/microchip/xc32/v2.05/bin/bin/../../lib/gcc/pic32mx/4.8.3/../../../../pic32mx/lib/speed/micromips\libpic32.a(vector26.o)
                              d:/program files (x86)/microchip/xc32/v2.05/bin/bin/../../lib/gcc/pic32mx/4.8.3/../../../../pic32mx/lib/./proc/32MM0256GPM048\default_isr_vectors.o (__vector_dispatch_26)
d:/program files (x86)/microchip/xc32/v2.05/bin/bin/../../lib/gcc/pic32mx/4.8.3/../../../../pic32mx/lib/speed/micromips\libpic32.a(vector27.o)
                              d:/program files (x86)/microchip/xc32/v2.05/bin/bin/../../lib/gcc/pic32mx/4.8.3/../../../../pic32mx/lib/./proc/32MM0256GPM048\default_isr_vectors.o (__vector_dispatch_27)
d:/program files (x86)/microchip/xc32/v2.05/bin/bin/../../lib/gcc/pic32mx/4.8.3/../../../../pic32mx/lib/speed/micromips\libpic32.a(vector28.o)
                              d:/program files (x86)/microchip/xc32/v2.05/bin/bin/../../lib/gcc/pic32mx/4.8.3/../../../../pic32mx/lib/./proc/32MM0256GPM048\default_isr_vectors.o (__vector_dispatch_28)
d:/program files (x86)/microchip/xc32/v2.05/bin/bin/../../lib/gcc/pic32mx/4.8.3/../../../../pic32mx/lib/speed/micromips\libpic32.a(vector29.o)
                              d:/program files (x86)/microchip/xc32/v2.05/bin/bin/../../lib/gcc/pic32mx/4.8.3/../../../../pic32mx/lib/./proc/32MM0256GPM048\default_isr_vectors.o (__vector_dispatch_29)
d:/program files (x86)/microchip/xc32/v2.05/bin/bin/../../lib/gcc/pic32mx/4.8.3/../../../../pic32mx/lib/speed/micromips\libpic32.a(vector30.o)
                              d:/program files (x86)/microchip/xc32/v2.05/bin/bin/../../lib/gcc/pic32mx/4.8.3/../../../../pic32mx/lib/./proc/32MM0256GPM048\default_isr_vectors.o (__vector_dispatch_30)
d:/program files (x86)/microchip/xc32/v2.05/bin/bin/../../lib/gcc/pic32mx/4.8.3/../../../../pic32mx/lib/speed/micromips\libpic32.a(vector31.o)
                              d:/program files (x86)/microchip/xc32/v2.05/bin/bin/../../lib/gcc/pic32mx/4.8.3/../../../../pic32mx/lib/./proc/32MM0256GPM048\default_isr_vectors.o (__vector_dispatch_31)
d:/program files (x86)/microchip/xc32/v2.05/bin/bin/../../lib/gcc/pic32mx/4.8.3/../../../../pic32mx/lib/speed/micromips\libpic32.a(vector33.o)
                              d:/program files (x86)/microchip/xc32/v2.05/bin/bin/../../lib/gcc/pic32mx/4.8.3/../../../../pic32mx/lib/./proc/32MM0256GPM048\default_isr_vectors.o (__vector_dispatch_33)
d:/program files (x86)/microchip/xc32/v2.05/bin/bin/../../lib/gcc/pic32mx/4.8.3/../../../../pic32mx/lib/speed/micromips\libpic32.a(vector34.o)
                              d:/program files (x86)/microchip/xc32/v2.05/bin/bin/../../lib/gcc/pic32mx/4.8.3/../../../../pic32mx/lib/./proc/32MM0256GPM048\default_isr_vectors.o (__vector_dispatch_34)
d:/program files (x86)/microchip/xc32/v2.05/bin/bin/../../lib/gcc/pic32mx/4.8.3/../../../../pic32mx/lib/speed/micromips\libpic32.a(vector35.o)
                              d:/program files (x86)/microchip/xc32/v2.05/bin/bin/../../lib/gcc/pic32mx/4.8.3/../../../../pic32mx/lib/./proc/32MM0256GPM048\default_isr_vectors.o (__vector_dispatch_35)
d:/program files (x86)/microchip/xc32/v2.05/bin/bin/../../lib/gcc/pic32mx/4.8.3/../../../../pic32mx/lib/speed/micromips\libpic32.a(vector36.o)
                              d:/program files (x86)/microchip/xc32/v2.05/bin/bin/../../lib/gcc/pic32mx/4.8.3/../../../../pic32mx/lib/./proc/32MM0256GPM048\default_isr_vectors.o (__vector_dispatch_36)
d:/program files (x86)/microchip/xc32/v2.05/bin/bin/../../lib/gcc/pic32mx/4.8.3/../../../../pic32mx/lib/speed/micromips\libpic32.a(vector37.o)
                              d:/program files (x86)/microchip/xc32/v2.05/bin/bin/../../lib/gcc/pic32mx/4.8.3/../../../../pic32mx/lib/./proc/32MM0256GPM048\default_isr_vectors.o (__vector_dispatch_37)
d:/program files (x86)/microchip/xc32/v2.05/bin/bin/../../lib/gcc/pic32mx/4.8.3/../../../../pic32mx/lib/speed/micromips\libpic32.a(vector38.o)
                              d:/program files (x86)/microchip/xc32/v2.05/bin/bin/../../lib/gcc/pic32mx/4.8.3/../../../../pic32mx/lib/./proc/32MM0256GPM048\default_isr_vectors.o (__vector_dispatch_38)
d:/program files (x86)/microchip/xc32/v2.05/bin/bin/../../lib/gcc/pic32mx/4.8.3/../../../../pic32mx/lib/speed/micromips\libpic32.a(vector39.o)
                              d:/program files (x86)/microchip/xc32/v2.05/bin/bin/../../lib/gcc/pic32mx/4.8.3/../../../../pic32mx/lib/./proc/32MM0256GPM048\default_isr_vectors.o (__vector_dispatch_39)
d:/program files (x86)/microchip/xc32/v2.05/bin/bin/../../lib/gcc/pic32mx/4.8.3/../../../../pic32mx/lib/speed/micromips\libpic32.a(vector40.o)
                              d:/program files (x86)/microchip/xc32/v2.05/bin/bin/../../lib/gcc/pic32mx/4.8.3/../../../../pic32mx/lib/./proc/32MM0256GPM048\default_isr_vectors.o (__vector_dispatch_40)
d:/program files (x86)/microchip/xc32/v2.05/bin/bin/../../lib/gcc/pic32mx/4.8.3/../../../../pic32mx/lib/speed/micromips\libpic32.a(vector41.o)
                              d:/program files (x86)/microchip/xc32/v2.05/bin/bin/../../lib/gcc/pic32mx/4.8.3/../../../../pic32mx/lib/./proc/32MM0256GPM048\default_isr_vectors.o (__vector_dispatch_41)
d:/program files (x86)/microchip/xc32/v2.05/bin/bin/../../lib/gcc/pic32mx/4.8.3/../../../../pic32mx/lib/speed/micromips\libpic32.a(vector42.o)
                              d:/program files (x86)/microchip/xc32/v2.05/bin/bin/../../lib/gcc/pic32mx/4.8.3/../../../../pic32mx/lib/./proc/32MM0256GPM048\default_isr_vectors.o (__vector_dispatch_42)
d:/program files (x86)/microchip/xc32/v2.05/bin/bin/../../lib/gcc/pic32mx/4.8.3/../../../../pic32mx/lib/speed/micromips\libpic32.a(vector43.o)
                              d:/program files (x86)/microchip/xc32/v2.05/bin/bin/../../lib/gcc/pic32mx/4.8.3/../../../../pic32mx/lib/./proc/32MM0256GPM048\default_isr_vectors.o (__vector_dispatch_43)
d:/program files (x86)/microchip/xc32/v2.05/bin/bin/../../lib/gcc/pic32mx/4.8.3/../../../../pic32mx/lib/speed/micromips\libpic32.a(vector44.o)
                              d:/program files (x86)/microchip/xc32/v2.05/bin/bin/../../lib/gcc/pic32mx/4.8.3/../../../../pic32mx/lib/./proc/32MM0256GPM048\default_isr_vectors.o (__vector_dispatch_44)
d:/program files (x86)/microchip/xc32/v2.05/bin/bin/../../lib/gcc/pic32mx/4.8.3/../../../../pic32mx/lib/speed/micromips\libpic32.a(vector46.o)
                              d:/program files (x86)/microchip/xc32/v2.05/bin/bin/../../lib/gcc/pic32mx/4.8.3/../../../../pic32mx/lib/./proc/32MM0256GPM048\default_isr_vectors.o (__vector_dispatch_46)
d:/program files (x86)/microchip/xc32/v2.05/bin/bin/../../lib/gcc/pic32mx/4.8.3/../../../../pic32mx/lib/speed/micromips\libpic32.a(vector47.o)
                              d:/program files (x86)/microchip/xc32/v2.05/bin/bin/../../lib/gcc/pic32mx/4.8.3/../../../../pic32mx/lib/./proc/32MM0256GPM048\default_isr_vectors.o (__vector_dispatch_47)
d:/program files (x86)/microchip/xc32/v2.05/bin/bin/../../lib/gcc/pic32mx/4.8.3/../../../../pic32mx/lib/speed/micromips\libpic32.a(vector48.o)
                              d:/program files (x86)/microchip/xc32/v2.05/bin/bin/../../lib/gcc/pic32mx/4.8.3/../../../../pic32mx/lib/./proc/32MM0256GPM048\default_isr_vectors.o (__vector_dispatch_48)
d:/program files (x86)/microchip/xc32/v2.05/bin/bin/../../lib/gcc/pic32mx/4.8.3/../../../../pic32mx/lib/speed/micromips\libpic32.a(vector49.o)
                              d:/program files (x86)/microchip/xc32/v2.05/bin/bin/../../lib/gcc/pic32mx/4.8.3/../../../../pic32mx/lib/./proc/32MM0256GPM048\default_isr_vectors.o (__vector_dispatch_49)
d:/program files (x86)/microchip/xc32/v2.05/bin/bin/../../lib/gcc/pic32mx/4.8.3/../../../../pic32mx/lib/speed/micromips\libpic32.a(vector50.o)
                              d:/program files (x86)/microchip/xc32/v2.05/bin/bin/../../lib/gcc/pic32mx/4.8.3/../../../../pic32mx/lib/./proc/32MM0256GPM048\default_isr_vectors.o (__vector_dispatch_50)
d:/program files (x86)/microchip/xc32/v2.05/bin/bin/../../lib/gcc/pic32mx/4.8.3/../../../../pic32mx/lib/speed/micromips\libpic32.a(vector51.o)
                              d:/program files (x86)/microchip/xc32/v2.05/bin/bin/../../lib/gcc/pic32mx/4.8.3/../../../../pic32mx/lib/./proc/32MM0256GPM048\default_isr_vectors.o (__vector_dispatch_51)
d:/program files (x86)/microchip/xc32/v2.05/bin/bin/../../lib/gcc/pic32mx/4.8.3/../../../../pic32mx/lib/speed/micromips\libpic32.a(vector52.o)
                              d:/program files (x86)/microchip/xc32/v2.05/bin/bin/../../lib/gcc/pic32mx/4.8.3/../../../../pic32mx/lib/./proc/32MM0256GPM048\default_isr_vectors.o (__vector_dispatch_52)
d:/program files (x86)/microchip/xc32/v2.05/bin/bin/../../lib/gcc/pic32mx/4.8.3/../../../../pic32mx/lib/speed/micromips\libpic32.a(vector53.o)
                              d:/program files (x86)/microchip/xc32/v2.05/bin/bin/../../lib/gcc/pic32mx/4.8.3/../../../../pic32mx/lib/./proc/32MM0256GPM048\default_isr_vectors.o (__vector_dispatch_53)
d:/program files (x86)/microchip/xc32/v2.05/bin/bin/../../lib/gcc/pic32mx/4.8.3/../../../../pic32mx/lib/speed/micromips\libpic32.a(vector54.o)
                              d:/program files (x86)/microchip/xc32/v2.05/bin/bin/../../lib/gcc/pic32mx/4.8.3/../../../../pic32mx/lib/./proc/32MM0256GPM048\default_isr_vectors.o (__vector_dispatch_54)
d:/program files (x86)/microchip/xc32/v2.05/bin/bin/../../lib/gcc/pic32mx/4.8.3/../../../../pic32mx/lib/speed/micromips\libpic32.a(vector55.o)
                              d:/program files (x86)/microchip/xc32/v2.05/bin/bin/../../lib/gcc/pic32mx/4.8.3/../../../../pic32mx/lib/./proc/32MM0256GPM048\default_isr_vectors.o (__vector_dispatch_55)
d:/program files (x86)/microchip/xc32/v2.05/bin/bin/../../lib/gcc/pic32mx/4.8.3/../../../../pic32mx/lib/speed/micromips\libpic32.a(vector59.o)
                              d:/program files (x86)/microchip/xc32/v2.05/bin/bin/../../lib/gcc/pic32mx/4.8.3/../../../../pic32mx/lib/./proc/32MM0256GPM048\default_isr_vectors.o (__vector_dispatch_59)
d:/program files (x86)/microchip/xc32/v2.05/bin/bin/../../lib/gcc/pic32mx/4.8.3/../../../../pic32mx/lib/speed/micromips\libpic32.a(vector60.o)
                              d:/program files (x86)/microchip/xc32/v2.05/bin/bin/../../lib/gcc/pic32mx/4.8.3/../../../../pic32mx/lib/./proc/32MM0256GPM048\default_isr_vectors.o (__vector_dispatch_60)
d:/program files (x86)/microchip/xc32/v2.05/bin/bin/../../lib/gcc/pic32mx/4.8.3/../../../../pic32mx/lib/speed/micromips\libpic32.a(vector61.o)
                              d:/program files (x86)/microchip/xc32/v2.05/bin/bin/../../lib/gcc/pic32mx/4.8.3/../../../../pic32mx/lib/./proc/32MM0256GPM048\default_isr_vectors.o (__vector_dispatch_61)
d:/program files (x86)/microchip/xc32/v2.05/bin/bin/../../lib/gcc/pic32mx/4.8.3/../../../../pic32mx/lib/speed/micromips\libpic32.a(vector62.o)
                              d:/program files (x86)/microchip/xc32/v2.05/bin/bin/../../lib/gcc/pic32mx/4.8.3/../../../../pic32mx/lib/./proc/32MM0256GPM048\default_isr_vectors.o (__vector_dispatch_62)
d:/program files (x86)/microchip/xc32/v2.05/bin/bin/../../lib/gcc/pic32mx/4.8.3/../../../../pic32mx/lib/speed/micromips\libpic32.a(vector63.o)
                              d:/program files (x86)/microchip/xc32/v2.05/bin/bin/../../lib/gcc/pic32mx/4.8.3/../../../../pic32mx/lib/./proc/32MM0256GPM048\default_isr_vectors.o (__vector_dispatch_63)
d:/program files (x86)/microchip/xc32/v2.05/bin/bin/../../lib/gcc/pic32mx/4.8.3/../../../../pic32mx/lib/speed/micromips\libpic32.a(vector64.o)
                              d:/program files (x86)/microchip/xc32/v2.05/bin/bin/../../lib/gcc/pic32mx/4.8.3/../../../../pic32mx/lib/./proc/32MM0256GPM048\default_isr_vectors.o (__vector_dispatch_64)
d:/program files (x86)/microchip/xc32/v2.05/bin/bin/../../lib/gcc/pic32mx/4.8.3/../../../../pic32mx/lib/speed/micromips\libpic32.a(vector65.o)
                              d:/program files (x86)/microchip/xc32/v2.05/bin/bin/../../lib/gcc/pic32mx/4.8.3/../../../../pic32mx/lib/./proc/32MM0256GPM048\default_isr_vectors.o (__vector_dispatch_65)
d:/program files (x86)/microchip/xc32/v2.05/bin/bin/../../lib/gcc/pic32mx/4.8.3/../../../../pic32mx/lib/speed/micromips\libpic32.a(vector66.o)
                              d:/program files (x86)/microchip/xc32/v2.05/bin/bin/../../lib/gcc/pic32mx/4.8.3/../../../../pic32mx/lib/./proc/32MM0256GPM048\default_isr_vectors.o (__vector_dispatch_66)
d:/program files (x86)/microchip/xc32/v2.05/bin/bin/../../lib/gcc/pic32mx/4.8.3/../../../../pic32mx/lib/speed/micromips\libpic32.a(vector67.o)
                              d:/program files (x86)/microchip/xc32/v2.05/bin/bin/../../lib/gcc/pic32mx/4.8.3/../../../../pic32mx/lib/./proc/32MM0256GPM048\default_isr_vectors.o (__vector_dispatch_67)
d:/program files (x86)/microchip/xc32/v2.05/bin/bin/../../lib/gcc/pic32mx/4.8.3/../../../../pic32mx/lib/speed/micromips\libpic32.a(vector68.o)
                              d:/program files (x86)/microchip/xc32/v2.05/bin/bin/../../lib/gcc/pic32mx/4.8.3/../../../../pic32mx/lib/./proc/32MM0256GPM048\default_isr_vectors.o (__vector_dispatch_68)
d:/program files (x86)/microchip/xc32/v2.05/bin/bin/../../lib/gcc/pic32mx/4.8.3/../../../../pic32mx/lib/speed/micromips\libpic32.a(vector69.o)
                              d:/program files (x86)/microchip/xc32/v2.05/bin/bin/../../lib/gcc/pic32mx/4.8.3/../../../../pic32mx/lib/./proc/32MM0256GPM048\default_isr_vectors.o (__vector_dispatch_69)
d:/program files (x86)/microchip/xc32/v2.05/bin/bin/../../lib/gcc/pic32mx/4.8.3/../../../../pic32mx/lib/speed/micromips\libpic32.a(vector70.o)
                              d:/program files (x86)/microchip/xc32/v2.05/bin/bin/../../lib/gcc/pic32mx/4.8.3/../../../../pic32mx/lib/./proc/32MM0256GPM048\default_isr_vectors.o (__vector_dispatch_70)
d:/program files (x86)/microchip/xc32/v2.05/bin/bin/../../lib/gcc/pic32mx/4.8.3/../../../../pic32mx/lib/speed/micromips\libpic32.a(vector71.o)
                              d:/program files (x86)/microchip/xc32/v2.05/bin/bin/../../lib/gcc/pic32mx/4.8.3/../../../../pic32mx/lib/./proc/32MM0256GPM048\default_isr_vectors.o (__vector_dispatch_71)
d:/program files (x86)/microchip/xc32/v2.05/bin/bin/../../lib/gcc/pic32mx/4.8.3/../../../../pic32mx/lib/speed/micromips\libpic32.a(vector72.o)
                              d:/program files (x86)/microchip/xc32/v2.05/bin/bin/../../lib/gcc/pic32mx/4.8.3/../../../../pic32mx/lib/./proc/32MM0256GPM048\default_isr_vectors.o (__vector_dispatch_72)
d:/program files (x86)/microchip/xc32/v2.05/bin/bin/../../lib/gcc/pic32mx/4.8.3/../../../../pic32mx/lib/speed/micromips\libpic32.a(vector73.o)
                              d:/program files (x86)/microchip/xc32/v2.05/bin/bin/../../lib/gcc/pic32mx/4.8.3/../../../../pic32mx/lib/./proc/32MM0256GPM048\default_isr_vectors.o (__vector_dispatch_73)
d:/program files (x86)/microchip/xc32/v2.05/bin/bin/../../lib/gcc/pic32mx/4.8.3/../../../../pic32mx/lib/speed/micromips\libpic32.a(vector74.o)
                              d:/program files (x86)/microchip/xc32/v2.05/bin/bin/../../lib/gcc/pic32mx/4.8.3/../../../../pic32mx/lib/./proc/32MM0256GPM048\default_isr_vectors.o (__vector_dispatch_74)
d:/program files (x86)/microchip/xc32/v2.05/bin/bin/../../lib/gcc/pic32mx/4.8.3/../../../../pic32mx/lib/speed/micromips\libpic32.a(vector75.o)
                              d:/program files (x86)/microchip/xc32/v2.05/bin/bin/../../lib/gcc/pic32mx/4.8.3/../../../../pic32mx/lib/./proc/32MM0256GPM048\default_isr_vectors.o (__vector_dispatch_75)
d:/program files (x86)/microchip/xc32/v2.05/bin/bin/../../lib/gcc/pic32mx/4.8.3/../../../../pic32mx/lib/speed/micromips\libpic32.a(vector76.o)
                              d:/program files (x86)/microchip/xc32/v2.05/bin/bin/../../lib/gcc/pic32mx/4.8.3/../../../../pic32mx/lib/./proc/32MM0256GPM048\default_isr_vectors.o (__vector_dispatch_76)
d:/program files (x86)/microchip/xc32/v2.05/bin/bin/../../lib/gcc/pic32mx/4.8.3/../../../../pic32mx/lib/speed/micromips\libpic32.a(vector77.o)
                              d:/program files (x86)/microchip/xc32/v2.05/bin/bin/../../lib/gcc/pic32mx/4.8.3/../../../../pic32mx/lib/./proc/32MM0256GPM048\default_isr_vectors.o (__vector_dispatch_77)
d:/program files (x86)/microchip/xc32/v2.05/bin/bin/../../lib/gcc/pic32mx/4.8.3/../../../../pic32mx/lib/speed/micromips\libpic32.a(vector78.o)
                              d:/program files (x86)/microchip/xc32/v2.05/bin/bin/../../lib/gcc/pic32mx/4.8.3/../../../../pic32mx/lib/./proc/32MM0256GPM048\default_isr_vectors.o (__vector_dispatch_78)
d:/program files (x86)/microchip/xc32/v2.05/bin/bin/../../lib/gcc/pic32mx/4.8.3/../../../../pic32mx/lib/speed/micromips\libpic32.a(vector79.o)
                              d:/program files (x86)/microchip/xc32/v2.05/bin/bin/../../lib/gcc/pic32mx/4.8.3/../../../../pic32mx/lib/./proc/32MM0256GPM048\default_isr_vectors.o (__vector_dispatch_79)
d:/program files (x86)/microchip/xc32/v2.05/bin/bin/../../lib/gcc/pic32mx/4.8.3/../../../../pic32mx/lib/speed/micromips\libpic32.a(vector80.o)
                              d:/program files (x86)/microchip/xc32/v2.05/bin/bin/../../lib/gcc/pic32mx/4.8.3/../../../../pic32mx/lib/./proc/32MM0256GPM048\default_isr_vectors.o (__vector_dispatch_80)
d:/program files (x86)/microchip/xc32/v2.05/bin/bin/../../lib/gcc/pic32mx/4.8.3/../../../../pic32mx/lib/speed/micromips\libpic32.a(vector81.o)
                              d:/program files (x86)/microchip/xc32/v2.05/bin/bin/../../lib/gcc/pic32mx/4.8.3/../../../../pic32mx/lib/./proc/32MM0256GPM048\default_isr_vectors.o (__vector_dispatch_81)
d:/program files (x86)/microchip/xc32/v2.05/bin/bin/../../lib/gcc/pic32mx/4.8.3/../../../../pic32mx/lib/speed/micromips\libpic32.a(vector82.o)
                              d:/program files (x86)/microchip/xc32/v2.05/bin/bin/../../lib/gcc/pic32mx/4.8.3/../../../../pic32mx/lib/./proc/32MM0256GPM048\default_isr_vectors.o (__vector_dispatch_82)
d:/program files (x86)/microchip/xc32/v2.05/bin/bin/../../lib/gcc/pic32mx/4.8.3/../../../../pic32mx/lib/speed/micromips\libpic32.a(vector83.o)
                              d:/program files (x86)/microchip/xc32/v2.05/bin/bin/../../lib/gcc/pic32mx/4.8.3/../../../../pic32mx/lib/./proc/32MM0256GPM048\default_isr_vectors.o (__vector_dispatch_83)
d:/program files (x86)/microchip/xc32/v2.05/bin/bin/../../lib/gcc/pic32mx/4.8.3/../../../../pic32mx/lib/speed/micromips\libpic32.a(vector84.o)
                              d:/program files (x86)/microchip/xc32/v2.05/bin/bin/../../lib/gcc/pic32mx/4.8.3/../../../../pic32mx/lib/./proc/32MM0256GPM048\default_isr_vectors.o (__vector_dispatch_84)
d:/program files (x86)/microchip/xc32/v2.05/bin/bin/../../lib/gcc/pic32mx/4.8.3/../../../../pic32mx/lib/speed/micromips\libpic32.a(vector85.o)
                              d:/program files (x86)/microchip/xc32/v2.05/bin/bin/../../lib/gcc/pic32mx/4.8.3/../../../../pic32mx/lib/./proc/32MM0256GPM048\default_isr_vectors.o (__vector_dispatch_85)
d:/program files (x86)/microchip/xc32/v2.05/bin/bin/../../lib/gcc/pic32mx/4.8.3/../../../../pic32mx/lib/speed/micromips\libpic32.a(vector86.o)
                              d:/program files (x86)/microchip/xc32/v2.05/bin/bin/../../lib/gcc/pic32mx/4.8.3/../../../../pic32mx/lib/./proc/32MM0256GPM048\default_isr_vectors.o (__vector_dispatch_86)
d:/program files (x86)/microchip/xc32/v2.05/bin/bin/../../lib/gcc/pic32mx/4.8.3/../../../../pic32mx/lib/speed/micromips\libpic32.a(vector87.o)
                              d:/program files (x86)/microchip/xc32/v2.05/bin/bin/../../lib/gcc/pic32mx/4.8.3/../../../../pic32mx/lib/./proc/32MM0256GPM048\default_isr_vectors.o (__vector_dispatch_87)
d:/program files (x86)/microchip/xc32/v2.05/bin/bin/../../lib/gcc/pic32mx/4.8.3/../../../../pic32mx/lib/speed/micromips\libpic32.a(vector88.o)
                              d:/program files (x86)/microchip/xc32/v2.05/bin/bin/../../lib/gcc/pic32mx/4.8.3/../../../../pic32mx/lib/./proc/32MM0256GPM048\default_isr_vectors.o (__vector_dispatch_88)
d:/program files (x86)/microchip/xc32/v2.05/bin/bin/../../lib/gcc/pic32mx/4.8.3/../../../../pic32mx/lib/speed/micromips\libpic32.a(vector89.o)
                              d:/program files (x86)/microchip/xc32/v2.05/bin/bin/../../lib/gcc/pic32mx/4.8.3/../../../../pic32mx/lib/./proc/32MM0256GPM048\default_isr_vectors.o (__vector_dispatch_89)
d:/program files (x86)/microchip/xc32/v2.05/bin/bin/../../lib/gcc/pic32mx/4.8.3/../../../../pic32mx/lib/speed/micromips\libpic32.a(vector90.o)
                              d:/program files (x86)/microchip/xc32/v2.05/bin/bin/../../lib/gcc/pic32mx/4.8.3/../../../../pic32mx/lib/./proc/32MM0256GPM048\default_isr_vectors.o (__vector_dispatch_90)
d:/program files (x86)/microchip/xc32/v2.05/bin/bin/../../lib/gcc/pic32mx/4.8.3/../../../../pic32mx/lib/speed/micromips\libpic32.a(vector91.o)
                              d:/program files (x86)/microchip/xc32/v2.05/bin/bin/../../lib/gcc/pic32mx/4.8.3/../../../../pic32mx/lib/./proc/32MM0256GPM048\default_isr_vectors.o (__vector_dispatch_91)
d:/program files (x86)/microchip/xc32/v2.05/bin/bin/../../lib/gcc/pic32mx/4.8.3/../../../../pic32mx/lib/speed/micromips\libpic32.a(vector92.o)
                              d:/program files (x86)/microchip/xc32/v2.05/bin/bin/../../lib/gcc/pic32mx/4.8.3/../../../../pic32mx/lib/./proc/32MM0256GPM048\default_isr_vectors.o (__vector_dispatch_92)
d:/program files (x86)/microchip/xc32/v2.05/bin/bin/../../lib/gcc/pic32mx/4.8.3/../../../../pic32mx/lib/speed/micromips\libpic32.a(vector93.o)
                              d:/program files (x86)/microchip/xc32/v2.05/bin/bin/../../lib/gcc/pic32mx/4.8.3/../../../../pic32mx/lib/./proc/32MM0256GPM048\default_isr_vectors.o (__vector_dispatch_93)
d:/program files (x86)/microchip/xc32/v2.05/bin/bin/../../lib/gcc/pic32mx/4.8.3/../../../../pic32mx/lib/speed/micromips\libpic32.a(vector94.o)
                              d:/program files (x86)/microchip/xc32/v2.05/bin/bin/../../lib/gcc/pic32mx/4.8.3/../../../../pic32mx/lib/./proc/32MM0256GPM048\default_isr_vectors.o (__vector_dispatch_94)
d:/program files (x86)/microchip/xc32/v2.05/bin/bin/../../lib/gcc/pic32mx/4.8.3/../../../../pic32mx/lib/speed/micromips\libpic32.a(vector95.o)
                              d:/program files (x86)/microchip/xc32/v2.05/bin/bin/../../lib/gcc/pic32mx/4.8.3/../../../../pic32mx/lib/./proc/32MM0256GPM048\default_isr_vectors.o (__vector_dispatch_95)
d:/program files (x86)/microchip/xc32/v2.05/bin/bin/../../lib/gcc/pic32mx/4.8.3/../../../../pic32mx/lib/speed/micromips\libpic32.a(vector96.o)
                              d:/program files (x86)/microchip/xc32/v2.05/bin/bin/../../lib/gcc/pic32mx/4.8.3/../../../../pic32mx/lib/./proc/32MM0256GPM048\default_isr_vectors.o (__vector_dispatch_96)
d:/program files (x86)/microchip/xc32/v2.05/bin/bin/../../lib/gcc/pic32mx/4.8.3/../../../../pic32mx/lib/speed/micromips\libpic32.a(vector97.o)
                              d:/program files (x86)/microchip/xc32/v2.05/bin/bin/../../lib/gcc/pic32mx/4.8.3/../../../../pic32mx/lib/./proc/32MM0256GPM048\default_isr_vectors.o (__vector_dispatch_97)
d:/program files (x86)/microchip/xc32/v2.05/bin/bin/../../lib/gcc/pic32mx/4.8.3/../../../../pic32mx/lib/speed/micromips\libpic32.a(vector98.o)
                              d:/program files (x86)/microchip/xc32/v2.05/bin/bin/../../lib/gcc/pic32mx/4.8.3/../../../../pic32mx/lib/./proc/32MM0256GPM048\default_isr_vectors.o (__vector_dispatch_98)
d:/program files (x86)/microchip/xc32/v2.05/bin/bin/../../lib/gcc/pic32mx/4.8.3/../../../../pic32mx/lib/speed/micromips\libpic32.a(vector99.o)
                              d:/program files (x86)/microchip/xc32/v2.05/bin/bin/../../lib/gcc/pic32mx/4.8.3/../../../../pic32mx/lib/./proc/32MM0256GPM048\default_isr_vectors.o (__vector_dispatch_99)
d:/program files (x86)/microchip/xc32/v2.05/bin/bin/../../lib/gcc/pic32mx/4.8.3/../../../../pic32mx/lib/speed/micromips\libpic32.a(vector100.o)
                              d:/program files (x86)/microchip/xc32/v2.05/bin/bin/../../lib/gcc/pic32mx/4.8.3/../../../../pic32mx/lib/./proc/32MM0256GPM048\default_isr_vectors.o (__vector_dispatch_100)
d:/program files (x86)/microchip/xc32/v2.05/bin/bin/../../lib/gcc/pic32mx/4.8.3/../../../../pic32mx/lib/speed/micromips\libpic32.a(vector101.o)
                              d:/program files (x86)/microchip/xc32/v2.05/bin/bin/../../lib/gcc/pic32mx/4.8.3/../../../../pic32mx/lib/./proc/32MM0256GPM048\default_isr_vectors.o (__vector_dispatch_101)
d:/program files (x86)/microchip/xc32/v2.05/bin/bin/../../lib/gcc/pic32mx/4.8.3/../../../../pic32mx/lib/speed/micromips\libpic32.a(defaultinterrupt.o)
                              d:/program files (x86)/microchip/xc32/v2.05/bin/bin/../../lib/gcc/pic32mx/4.8.3/../../../../pic32mx/lib/speed/micromips\libpic32.a(vector1.o) (_DefaultInterrupt)
d:/program files (x86)/microchip/xc32/v2.05/bin/bin/../../lib/gcc/pic32mx/4.8.3/../../../../pic32mx/lib/speed/micromips\librcfops.a(sprcadd.o)
                              build/default/debug/_display/ili9341/disp9341.o (fpadd)
d:/program files (x86)/microchip/xc32/v2.05/bin/bin/../../lib/gcc/pic32mx/4.8.3/../../../../pic32mx/lib/speed/micromips\librcfops.a(sprcdiv.o)
                              build/default/debug/_display/ili9341/disp9341.o (fpdiv)
d:/program files (x86)/microchip/xc32/v2.05/bin/bin/../../lib/gcc/pic32mx/4.8.3/../../../../pic32mx/lib/speed/micromips\librcfops.a(sprcmul.o)
                              build/default/debug/_display/ili9341/disp9341.o (fpmul)
d:/program files (x86)/microchip/xc32/v2.05/bin/bin/../../lib/gcc/pic32mx/4.8.3/../../../../pic32mx/lib/speed/micromips\librcfops.a(sprcsubs.o)
                              d:/program files (x86)/microchip/xc32/v2.05/bin/bin/../../lib/gcc/pic32mx/4.8.3/../../../../pic32mx/lib/speed/micromips\librcfops.a(sprcadd.o) (supchk)
d:/program files (x86)/microchip/xc32/v2.05/bin/bin/../../lib/gcc/pic32mx/4.8.3/../../../../pic32mx/lib/speed/micromips\libm.a(fptoli.o)
                              build/default/debug/_display/ili9341/disp9341.o (fptosi)
d:/program files (x86)/microchip/xc32/v2.05/bin/bin/../../lib/gcc/pic32mx/4.8.3/../../../../pic32mx/lib/speed/micromips\libm.a(sitofp.o)
                              build/default/debug/_display/ili9341/disp9341.o (sitofp)

Allocating common symbols
Common symbol       size              file

SYSTEM_STATUS       0x4               build/default/debug/clock_cfgBits_mm.o
graphics            0x40              build/default/debug/_display/graphics.o
dataStruct          0x20              build/default/debug/app1.o
master2Item         0x20              build/default/debug/netcom2.o
master8Item         0x20              build/default/debug/netcom2.o
master1Item         0x20              build/default/debug/netcom2.o
font_twcen_22       0x4c              build/default/debug/_display/graphics.o
defaultAppStartParam
                    0x8               build/default/debug/clock_cfgBits_mm.o
sendingItem         0x4               build/default/debug/netcom2.o
replyItem           0x20              build/default/debug/netcom2.o
data1024            0x20              build/default/debug/app1.o
setPipe1            0xc               build/default/debug/app1.o
LED1                0x8               build/default/debug/clock_cfgBits_mm.o
sysDisplay          0x50              build/default/debug/_display/graphics.o
LED3                0x8               build/default/debug/clock_cfgBits_mm.o
font_twcen_18       0x4c              build/default/debug/_display/graphics.o
_finish             0x4               build/default/debug/netcom2.o
defaultFont         0x4               build/default/debug/_display/ili9341/disp9341.o
setPipe1data        0x20              build/default/debug/app1.o
LED2                0x8               build/default/debug/clock_cfgBits_mm.o
getPipe1            0xc               build/default/debug/app1.o
getPipe0            0xc               build/default/debug/app1.o
LED4                0x8               build/default/debug/clock_cfgBits_mm.o
setPipe0data        0x20              build/default/debug/app1.o
setPipe0            0xc               build/default/debug/app1.o

Microchip PIC32 Memory-Usage Report

kseg0 Program-Memory Usage
section                    address  length [bytes]      (dec)  Description
-------                 ----------  -------------------------  -----------
.text                   0x9d000000          0x15c         348  App's exec code 
.text                   0x9d00015c           0x18          24  App's exec code 
.text.__exception_handl 0x9d000174            0x4           4   
.text._on_reset         0x9d000178            0x4           4   
.text._on_bootstrap     0x9d00017c            0x4           4   
.app_excpt              0x9d000180            0xc          12  General-Exception 
.text.fptoli            0x9d00018c           0x64         100   
.vector_0               0x9d000200            0x8           8  Interrupt Vector 0 
.vector_1               0x9d000208            0x8           8  Interrupt Vector 1 
.vector_2               0x9d000210            0x8           8  Interrupt Vector 2 
.vector_3               0x9d000218            0x8           8  Interrupt Vector 3 
.vector_4               0x9d000220            0x8           8  Interrupt Vector 4 
.vector_5               0x9d000228            0x8           8  Interrupt Vector 5 
.vector_6               0x9d000230            0x8           8  Interrupt Vector 6 
.vector_7               0x9d000238            0x8           8  Interrupt Vector 7 
.vector_8               0x9d000240            0x8           8  Interrupt Vector 8 
.vector_9               0x9d000248            0x8           8  Interrupt Vector 9 
.vector_10              0x9d000250            0x8           8  Interrupt Vector 10 
.vector_11              0x9d000258            0x8           8  Interrupt Vector 11 
.vector_12              0x9d000260            0x8           8  Interrupt Vector 12 
.vector_13              0x9d000268            0x8           8  Interrupt Vector 13 
.vector_14              0x9d000270            0x8           8  Interrupt Vector 14 
.vector_15              0x9d000278            0x8           8  Interrupt Vector 15 
.vector_16              0x9d000280            0x8           8  Interrupt Vector 16 
.vector_17              0x9d000288            0x8           8  Interrupt Vector 17 
.vector_18              0x9d000290            0x8           8  Interrupt Vector 18 
.vector_19              0x9d000298            0x8           8  Interrupt Vector 19 
.vector_20              0x9d0002a0            0x8           8  Interrupt Vector 20 
.vector_21              0x9d0002a8            0x8           8  Interrupt Vector 21 
.vector_22              0x9d0002b0            0x8           8  Interrupt Vector 22 
.vector_23              0x9d0002b8            0x8           8  Interrupt Vector 23 
.vector_24              0x9d0002c0            0x8           8  Interrupt Vector 24 
.vector_25              0x9d0002c8            0x8           8  Interrupt Vector 25 
.vector_26              0x9d0002d0            0x8           8  Interrupt Vector 26 
.vector_27              0x9d0002d8            0x8           8  Interrupt Vector 27 
.vector_28              0x9d0002e0            0x8           8  Interrupt Vector 28 
.vector_29              0x9d0002e8            0x8           8  Interrupt Vector 29 
.vector_30              0x9d0002f0            0x8           8  Interrupt Vector 30 
.vector_31              0x9d0002f8            0x8           8  Interrupt Vector 31 
.vector_32              0x9d000300            0x8           8  Interrupt Vector 32 
.vector_33              0x9d000308            0x8           8  Interrupt Vector 33 
.vector_34              0x9d000310            0x8           8  Interrupt Vector 34 
.vector_35              0x9d000318            0x8           8  Interrupt Vector 35 
.vector_36              0x9d000320            0x8           8  Interrupt Vector 36 
.vector_37              0x9d000328            0x8           8  Interrupt Vector 37 
.vector_38              0x9d000330            0x8           8  Interrupt Vector 38 
.vector_39              0x9d000338            0x8           8  Interrupt Vector 39 
.vector_40              0x9d000340            0x8           8  Interrupt Vector 40 
.vector_41              0x9d000348            0x8           8  Interrupt Vector 41 
.vector_42              0x9d000350            0x8           8  Interrupt Vector 42 
.vector_43              0x9d000358            0x8           8  Interrupt Vector 43 
.vector_44              0x9d000360            0x8           8  Interrupt Vector 44 
.vector_45              0x9d000368            0x8           8  Interrupt Vector 45 
.vector_46              0x9d000370            0x8           8  Interrupt Vector 46 
.vector_47              0x9d000378            0x8           8  Interrupt Vector 47 
.vector_48              0x9d000380            0x8           8  Interrupt Vector 48 
.vector_49              0x9d000388            0x8           8  Interrupt Vector 49 
.vector_50              0x9d000390            0x8           8  Interrupt Vector 50 
.vector_51              0x9d000398            0x8           8  Interrupt Vector 51 
.vector_52              0x9d0003a0            0x8           8  Interrupt Vector 52 
.vector_53              0x9d0003a8            0x8           8  Interrupt Vector 53 
.vector_54              0x9d0003b0            0x8           8  Interrupt Vector 54 
.vector_55              0x9d0003b8            0x8           8  Interrupt Vector 55 
.vector_56              0x9d0003c0            0x8           8  Interrupt Vector 56 
.vector_57              0x9d0003c8            0x8           8  Interrupt Vector 57 
.vector_58              0x9d0003d0            0x8           8  Interrupt Vector 58 
.vector_59              0x9d0003d8            0x8           8  Interrupt Vector 59 
.vector_60              0x9d0003e0            0x8           8  Interrupt Vector 60 
.vector_61              0x9d0003e8            0x8           8  Interrupt Vector 61 
.vector_62              0x9d0003f0            0x8           8  Interrupt Vector 62 
.vector_63              0x9d0003f8            0x8           8  Interrupt Vector 63 
.vector_64              0x9d000400            0x8           8   
.vector_65              0x9d000408            0x8           8   
.vector_66              0x9d000410            0x8           8   
.vector_67              0x9d000418            0x8           8   
.vector_68              0x9d000420            0x8           8   
.vector_69              0x9d000428            0x8           8   
.vector_70              0x9d000430            0x8           8   
.vector_71              0x9d000438            0x8           8   
.vector_72              0x9d000440            0x8           8   
.vector_73              0x9d000448            0x8           8   
.vector_74              0x9d000450            0x8           8   
.vector_75              0x9d000458            0x8           8   
.vector_76              0x9d000460            0x8           8   
.vector_77              0x9d000468            0x8           8   
.vector_78              0x9d000470            0x8           8   
.vector_79              0x9d000478            0x8           8   
.vector_80              0x9d000480            0x8           8   
.vector_81              0x9d000488            0x8           8   
.vector_82              0x9d000490            0x8           8   
.vector_83              0x9d000498            0x8           8   
.vector_84              0x9d0004a0            0x8           8   
.vector_85              0x9d0004a8            0x8           8   
.vector_86              0x9d0004b0            0x8           8   
.vector_87              0x9d0004b8            0x8           8   
.vector_88              0x9d0004c0            0x8           8   
.vector_89              0x9d0004c8            0x8           8   
.vector_90              0x9d0004d0            0x8           8   
.vector_91              0x9d0004d8            0x8           8   
.vector_92              0x9d0004e0            0x8           8   
.vector_93              0x9d0004e8            0x8           8   
.vector_94              0x9d0004f0            0x8           8   
.vector_95              0x9d0004f8            0x8           8   
.vector_96              0x9d000500            0x8           8   
.vector_97              0x9d000508            0x8           8   
.vector_98              0x9d000510            0x8           8   
.vector_99              0x9d000518            0x8           8   
.vector_100             0x9d000520            0x8           8   
.vector_101             0x9d000528            0x8           8   
.rodata                 0x9d000530         0x5014       20500  Read-only const 
.text                   0x9d005544         0x3b44       15172  App's exec code 
.text                   0x9d009088          0xef8        3832  App's exec code 
.asm_fn                 0x9d009f80          0xe4c        3660   
.text                   0x9d00adcc          0xa44        2628  App's exec code 
.asm_fn                 0x9d00b810          0x970        2416   
.asm_rtc                0x9d00c180          0x4b0        1200   
.text                   0x9d00c630          0x7fc        2044  App's exec code 
.text                   0x9d00ce2c          0x3e0         992  App's exec code 
.asm_cn                 0x9d00d20c          0x364         868   
.dinit                  0x9d00d570          0x320         800   
.text                   0x9d00d890          0x3fc        1020  App's exec code 
.text                   0x9d00dc8c          0x1b4         436  App's exec code 
.asm_timer1             0x9d00de40          0x1a8         424   
.text                   0x9d00dfe8          0x1a4         420  App's exec code 
.text                   0x9d00e18c          0x21c         540  App's exec code 
.text                   0x9d00e3a8          0x164         356  App's exec code 
.rodata                 0x9d00e50c          0x130         304  Read-only const 
.rodata                 0x9d00e63c          0x130         304  Read-only const 
.rodata                 0x9d00e76c          0x130         304  Read-only const 
.rodata                 0x9d00e89c          0x130         304  Read-only const 
.rodata                 0x9d00e9cc          0x130         304  Read-only const 
.rodata                 0x9d00eafc          0x130         304  Read-only const 
.rodata                 0x9d00ec2c          0x130         304  Read-only const 
.text.general_exception 0x9d00ed5c           0x80         128   
.asm_fn                 0x9d00eddc           0x60          96   
.text.sitofp            0x9d00ee3c           0x54          84   
.text                   0x9d00ee90           0x50          80  App's exec code 
.text.main_entry        0x9d00eee0           0x44          68   
.text                   0x9d00ef24           0x40          64  App's exec code 
.text._bootstrap_except 0x9d00ef64           0x34          52   
.vector_default         0x9d00ef98           0x30          48   
      Total kseg0_program_mem used  :      0xefb8       61368  23.4% of 0x40000

kseg0 Boot-Memory Usage
section                    address  length [bytes]      (dec)  Description
-------                 ----------  -------------------------  -----------
         Total kseg0_boot_mem used  :           0           0  

kseg1 Boot-Memory Usage
section                    address  length [bytes]      (dec)  Description
-------                 ----------  -------------------------  -----------
.reset                  0xbfc00000          0x1cc         460  Reset handler 
.bev_excpt              0xbfc00380            0xc          12  BEV-Exception 
         Total kseg1_boot_mem used  :       0x1d8         472  40.4% of 0x490
        --------------------------------------------------------------------------
         Total Program Memory used  :      0xf190       61840  23.5% of 0x40490
        --------------------------------------------------------------------------


kseg0 Data-Memory Usage
section                    address  length [bytes]      (dec)  Description
-------                 ----------  -------------------------  -----------
reserve_data_0_kseg0    0x80000000          0x200         512   
.sdata                  0x80000200           0x9c         156  Small init data 
.sbss                   0x8000029c          0x278         632  Small uninit data 
.bss                    0x80000514          0x258         600  Uninitialized data 
.bss                    0x8000076c          0x810        2064  Uninitialized data 
.data                   0x80000f7c           0x6c         108  Initialized data 
.bss                    0x80000fe8           0x30          48  Uninitialized data 
.data                   0x80001018           0x20          32  Initialized data 
.os_stack               0x800059b0         0x2000        8192   
.os                     0x800079b0          0x650        1616   
         Total kseg0_data_mem used  :      0x3688       13960  42.6% of 0x8000

kseg1 Data-Memory Usage
section                    address  length [bytes]      (dec)  Description
-------                 ----------  -------------------------  -----------
reserve_data_0_kseg1    0xa0000000          0x200         512   
         Total kseg1_data_mem used  :       0x200         512  100.0% of 0x200
        --------------------------------------------------------------------------
            Total Data Memory used  :      0x3888       14472  43.5% of 0x8200
        --------------------------------------------------------------------------


Dynamic Data-Memory Reservation
section                    address  length [bytes]      (dec)  Description
-------                 ----------  -------------------------  -----------
heap                    0x80001040           0x10          16  Reserved for heap 
stack                   0x80001068         0x4940       18752  Reserved for stack 

        --------------------------------------------------------------------------

Discarded input sections

 .reginfo       0x00000000       0x18 d:/program files (x86)/microchip/xc32/v2.05/bin/bin/../../lib/gcc/pic32mx/4.8.3/../../../../pic32mx/lib/speed/micromips\software-debug-break.o
 .reginfo       0x00000000       0x18 build/default/debug/asm_macro.o
 .reginfo       0x00000000       0x18 build/default/debug/clock_cfgBits_mm.o
 .reginfo       0x00000000       0x18 build/default/debug/clock_cfgBits_mz.o
 .reginfo       0x00000000       0x18 build/default/debug/netcom2.o
 .reginfo       0x00000000       0x18 build/default/debug/main.o
 .reginfo       0x00000000       0x18 build/default/debug/globals.o
 .reginfo       0x00000000       0x18 build/default/debug/timer1.o
 .reginfo       0x00000000       0x18 build/default/debug/core_fn.o
 .reginfo       0x00000000       0x18 build/default/debug/_display/ili9341/disp9341.o
 .reginfo       0x00000000       0x18 build/default/debug/_display/ili9341/disp16_asm.o
 .reginfo       0x00000000       0x18 build/default/debug/_display/ssd1306/disp1306.o
 .reginfo       0x00000000       0x18 build/default/debug/_display/graphics.o
 .reginfo       0x00000000       0x18 build/default/debug/rtc.o
 .reginfo       0x00000000       0x18 build/default/debug/change_notif_mz.o
 .reginfo       0x00000000       0x18 build/default/debug/change_notif_mm.o
 .reginfo       0x00000000       0x18 build/default/debug/spi.o
 .reginfo       0x00000000       0x18 build/default/debug/portWriter.o
 .reginfo       0x00000000       0x18 build/default/debug/ubtn2.o
 .reginfo       0x00000000       0x18 build/default/debug/_touchpad/touchXpt2046.o
 .reginfo       0x00000000       0x18 build/default/debug/periph.o
 .reginfo       0x00000000       0x18 build/default/debug/periph_fn.o
 .reginfo       0x00000000       0x18 build/default/debug/app1.o
 .reginfo       0x00000000       0x18 build/default/debug/app2.o
 .reginfo       0x00000000       0x18 build/default/debug/app3.o
 .reginfo       0x00000000       0x18 build/default/debug/user_apps.o
 .reginfo       0x00000000       0x18 d:/program files (x86)/microchip/xc32/v2.05/bin/bin/../../lib/gcc/pic32mx/4.8.3/../../../../pic32mx/lib/./proc/32MM0256GPM048\default_isr_vectors.o
 .discard       0x00000000      0x198 d:/program files (x86)/microchip/xc32/v2.05/bin/bin/../../lib/gcc/pic32mx/4.8.3/../../../../pic32mx/lib/./proc/32MM0256GPM048\default_isr_vectors.o
 .reginfo       0x00000000       0x18 d:/program files (x86)/microchip/xc32/v2.05/bin/bin/../../lib/gcc/pic32mx/4.8.3/../../../../pic32mx/lib/speed/micromips\pic32_software_reset-mm.o
 .reginfo       0x00000000       0x18 d:/program files (x86)/microchip/xc32/v2.05/bin/bin/../../lib/gcc/pic32mx/4.8.3/../../../../pic32mx/lib/./proc/32MM0256GPM048\processor.o
 .reginfo       0x00000000       0x18 d:/program files (x86)/microchip/xc32/v2.05/bin/bin/../../lib/gcc/pic32mx/4.8.3/../../../../pic32mx/lib/speed/micromips\libpic32.a(default-bootstrap-exception-handler.o)
 .reginfo       0x00000000       0x18 d:/program files (x86)/microchip/xc32/v2.05/bin/bin/../../lib/gcc/pic32mx/4.8.3/../../../../pic32mx/lib/speed/micromips\libpic32.a(default-on-reset.o)
 .reginfo       0x00000000       0x18 d:/program files (x86)/microchip/xc32/v2.05/bin/bin/../../lib/gcc/pic32mx/4.8.3/../../../../pic32mx/lib/speed/micromips\libpic32.a(default-on-bootstrap.o)
 .reginfo       0x00000000       0x18 d:/program files (x86)/microchip/xc32/v2.05/bin/bin/../../lib/gcc/pic32mx/4.8.3/../../../../pic32mx/lib/speed/micromips\libpic32.a(default-nmi-handler.o)
 .reginfo       0x00000000       0x18 d:/program files (x86)/microchip/xc32/v2.05/bin/bin/../../lib/gcc/pic32mx/4.8.3/../../../../pic32mx/lib/speed/micromips\libpic32.a(general-exception.o)
 .reginfo       0x00000000       0x18 d:/program files (x86)/microchip/xc32/v2.05/bin/bin/../../lib/gcc/pic32mx/4.8.3/../../../../pic32mx/lib/speed/micromips\libpic32.a(vector1.o)
 .reginfo       0x00000000       0x18 d:/program files (x86)/microchip/xc32/v2.05/bin/bin/../../lib/gcc/pic32mx/4.8.3/../../../../pic32mx/lib/speed/micromips\libpic32.a(vector2.o)
 .reginfo       0x00000000       0x18 d:/program files (x86)/microchip/xc32/v2.05/bin/bin/../../lib/gcc/pic32mx/4.8.3/../../../../pic32mx/lib/speed/micromips\libpic32.a(vector3.o)
 .reginfo       0x00000000       0x18 d:/program files (x86)/microchip/xc32/v2.05/bin/bin/../../lib/gcc/pic32mx/4.8.3/../../../../pic32mx/lib/speed/micromips\libpic32.a(vector4.o)
 .reginfo       0x00000000       0x18 d:/program files (x86)/microchip/xc32/v2.05/bin/bin/../../lib/gcc/pic32mx/4.8.3/../../../../pic32mx/lib/speed/micromips\libpic32.a(vector5.o)
 .reginfo       0x00000000       0x18 d:/program files (x86)/microchip/xc32/v2.05/bin/bin/../../lib/gcc/pic32mx/4.8.3/../../../../pic32mx/lib/speed/micromips\libpic32.a(vector6.o)
 .reginfo       0x00000000       0x18 d:/program files (x86)/microchip/xc32/v2.05/bin/bin/../../lib/gcc/pic32mx/4.8.3/../../../../pic32mx/lib/speed/micromips\libpic32.a(vector7.o)
 .reginfo       0x00000000       0x18 d:/program files (x86)/microchip/xc32/v2.05/bin/bin/../../lib/gcc/pic32mx/4.8.3/../../../../pic32mx/lib/speed/micromips\libpic32.a(vector12.o)
 .reginfo       0x00000000       0x18 d:/program files (x86)/microchip/xc32/v2.05/bin/bin/../../lib/gcc/pic32mx/4.8.3/../../../../pic32mx/lib/speed/micromips\libpic32.a(vector13.o)
 .reginfo       0x00000000       0x18 d:/program files (x86)/microchip/xc32/v2.05/bin/bin/../../lib/gcc/pic32mx/4.8.3/../../../../pic32mx/lib/speed/micromips\libpic32.a(vector14.o)
 .reginfo       0x00000000       0x18 d:/program files (x86)/microchip/xc32/v2.05/bin/bin/../../lib/gcc/pic32mx/4.8.3/../../../../pic32mx/lib/speed/micromips\libpic32.a(vector15.o)
 .reginfo       0x00000000       0x18 d:/program files (x86)/microchip/xc32/v2.05/bin/bin/../../lib/gcc/pic32mx/4.8.3/../../../../pic32mx/lib/speed/micromips\libpic32.a(vector16.o)
 .reginfo       0x00000000       0x18 d:/program files (x86)/microchip/xc32/v2.05/bin/bin/../../lib/gcc/pic32mx/4.8.3/../../../../pic32mx/lib/speed/micromips\libpic32.a(vector18.o)
 .reginfo       0x00000000       0x18 d:/program files (x86)/microchip/xc32/v2.05/bin/bin/../../lib/gcc/pic32mx/4.8.3/../../../../pic32mx/lib/speed/micromips\libpic32.a(vector19.o)
 .reginfo       0x00000000       0x18 d:/program files (x86)/microchip/xc32/v2.05/bin/bin/../../lib/gcc/pic32mx/4.8.3/../../../../pic32mx/lib/speed/micromips\libpic32.a(vector20.o)
 .reginfo       0x00000000       0x18 d:/program files (x86)/microchip/xc32/v2.05/bin/bin/../../lib/gcc/pic32mx/4.8.3/../../../../pic32mx/lib/speed/micromips\libpic32.a(vector21.o)
 .reginfo       0x00000000       0x18 d:/program files (x86)/microchip/xc32/v2.05/bin/bin/../../lib/gcc/pic32mx/4.8.3/../../../../pic32mx/lib/speed/micromips\libpic32.a(vector22.o)
 .reginfo       0x00000000       0x18 d:/program files (x86)/microchip/xc32/v2.05/bin/bin/../../lib/gcc/pic32mx/4.8.3/../../../../pic32mx/lib/speed/micromips\libpic32.a(vector23.o)
 .reginfo       0x00000000       0x18 d:/program files (x86)/microchip/xc32/v2.05/bin/bin/../../lib/gcc/pic32mx/4.8.3/../../../../pic32mx/lib/speed/micromips\libpic32.a(vector24.o)
 .reginfo       0x00000000       0x18 d:/program files (x86)/microchip/xc32/v2.05/bin/bin/../../lib/gcc/pic32mx/4.8.3/../../../../pic32mx/lib/speed/micromips\libpic32.a(vector25.o)
 .reginfo       0x00000000       0x18 d:/program files (x86)/microchip/xc32/v2.05/bin/bin/../../lib/gcc/pic32mx/4.8.3/../../../../pic32mx/lib/speed/micromips\libpic32.a(vector26.o)
 .reginfo       0x00000000       0x18 d:/program files (x86)/microchip/xc32/v2.05/bin/bin/../../lib/gcc/pic32mx/4.8.3/../../../../pic32mx/lib/speed/micromips\libpic32.a(vector27.o)
 .reginfo       0x00000000       0x18 d:/program files (x86)/microchip/xc32/v2.05/bin/bin/../../lib/gcc/pic32mx/4.8.3/../../../../pic32mx/lib/speed/micromips\libpic32.a(vector28.o)
 .reginfo       0x00000000       0x18 d:/program files (x86)/microchip/xc32/v2.05/bin/bin/../../lib/gcc/pic32mx/4.8.3/../../../../pic32mx/lib/speed/micromips\libpic32.a(vector29.o)
 .reginfo       0x00000000       0x18 d:/program files (x86)/microchip/xc32/v2.05/bin/bin/../../lib/gcc/pic32mx/4.8.3/../../../../pic32mx/lib/speed/micromips\libpic32.a(vector30.o)
 .reginfo       0x00000000       0x18 d:/program files (x86)/microchip/xc32/v2.05/bin/bin/../../lib/gcc/pic32mx/4.8.3/../../../../pic32mx/lib/speed/micromips\libpic32.a(vector31.o)
 .reginfo       0x00000000       0x18 d:/program files (x86)/microchip/xc32/v2.05/bin/bin/../../lib/gcc/pic32mx/4.8.3/../../../../pic32mx/lib/speed/micromips\libpic32.a(vector33.o)
 .reginfo       0x00000000       0x18 d:/program files (x86)/microchip/xc32/v2.05/bin/bin/../../lib/gcc/pic32mx/4.8.3/../../../../pic32mx/lib/speed/micromips\libpic32.a(vector34.o)
 .reginfo       0x00000000       0x18 d:/program files (x86)/microchip/xc32/v2.05/bin/bin/../../lib/gcc/pic32mx/4.8.3/../../../../pic32mx/lib/speed/micromips\libpic32.a(vector35.o)
 .reginfo       0x00000000       0x18 d:/program files (x86)/microchip/xc32/v2.05/bin/bin/../../lib/gcc/pic32mx/4.8.3/../../../../pic32mx/lib/speed/micromips\libpic32.a(vector36.o)
 .reginfo       0x00000000       0x18 d:/program files (x86)/microchip/xc32/v2.05/bin/bin/../../lib/gcc/pic32mx/4.8.3/../../../../pic32mx/lib/speed/micromips\libpic32.a(vector37.o)
 .reginfo       0x00000000       0x18 d:/program files (x86)/microchip/xc32/v2.05/bin/bin/../../lib/gcc/pic32mx/4.8.3/../../../../pic32mx/lib/speed/micromips\libpic32.a(vector38.o)
 .reginfo       0x00000000       0x18 d:/program files (x86)/microchip/xc32/v2.05/bin/bin/../../lib/gcc/pic32mx/4.8.3/../../../../pic32mx/lib/speed/micromips\libpic32.a(vector39.o)
 .reginfo       0x00000000       0x18 d:/program files (x86)/microchip/xc32/v2.05/bin/bin/../../lib/gcc/pic32mx/4.8.3/../../../../pic32mx/lib/speed/micromips\libpic32.a(vector40.o)
 .reginfo       0x00000000       0x18 d:/program files (x86)/microchip/xc32/v2.05/bin/bin/../../lib/gcc/pic32mx/4.8.3/../../../../pic32mx/lib/speed/micromips\libpic32.a(vector41.o)
 .reginfo       0x00000000       0x18 d:/program files (x86)/microchip/xc32/v2.05/bin/bin/../../lib/gcc/pic32mx/4.8.3/../../../../pic32mx/lib/speed/micromips\libpic32.a(vector42.o)
 .reginfo       0x00000000       0x18 d:/program files (x86)/microchip/xc32/v2.05/bin/bin/../../lib/gcc/pic32mx/4.8.3/../../../../pic32mx/lib/speed/micromips\libpic32.a(vector43.o)
 .reginfo       0x00000000       0x18 d:/program files (x86)/microchip/xc32/v2.05/bin/bin/../../lib/gcc/pic32mx/4.8.3/../../../../pic32mx/lib/speed/micromips\libpic32.a(vector44.o)
 .reginfo       0x00000000       0x18 d:/program files (x86)/microchip/xc32/v2.05/bin/bin/../../lib/gcc/pic32mx/4.8.3/../../../../pic32mx/lib/speed/micromips\libpic32.a(vector46.o)
 .reginfo       0x00000000       0x18 d:/program files (x86)/microchip/xc32/v2.05/bin/bin/../../lib/gcc/pic32mx/4.8.3/../../../../pic32mx/lib/speed/micromips\libpic32.a(vector47.o)
 .reginfo       0x00000000       0x18 d:/program files (x86)/microchip/xc32/v2.05/bin/bin/../../lib/gcc/pic32mx/4.8.3/../../../../pic32mx/lib/speed/micromips\libpic32.a(vector48.o)
 .reginfo       0x00000000       0x18 d:/program files (x86)/microchip/xc32/v2.05/bin/bin/../../lib/gcc/pic32mx/4.8.3/../../../../pic32mx/lib/speed/micromips\libpic32.a(vector49.o)
 .reginfo       0x00000000       0x18 d:/program files (x86)/microchip/xc32/v2.05/bin/bin/../../lib/gcc/pic32mx/4.8.3/../../../../pic32mx/lib/speed/micromips\libpic32.a(vector50.o)
 .reginfo       0x00000000       0x18 d:/program files (x86)/microchip/xc32/v2.05/bin/bin/../../lib/gcc/pic32mx/4.8.3/../../../../pic32mx/lib/speed/micromips\libpic32.a(vector51.o)
 .reginfo       0x00000000       0x18 d:/program files (x86)/microchip/xc32/v2.05/bin/bin/../../lib/gcc/pic32mx/4.8.3/../../../../pic32mx/lib/speed/micromips\libpic32.a(vector52.o)
 .reginfo       0x00000000       0x18 d:/program files (x86)/microchip/xc32/v2.05/bin/bin/../../lib/gcc/pic32mx/4.8.3/../../../../pic32mx/lib/speed/micromips\libpic32.a(vector53.o)
 .reginfo       0x00000000       0x18 d:/program files (x86)/microchip/xc32/v2.05/bin/bin/../../lib/gcc/pic32mx/4.8.3/../../../../pic32mx/lib/speed/micromips\libpic32.a(vector54.o)
 .reginfo       0x00000000       0x18 d:/program files (x86)/microchip/xc32/v2.05/bin/bin/../../lib/gcc/pic32mx/4.8.3/../../../../pic32mx/lib/speed/micromips\libpic32.a(vector55.o)
 .reginfo       0x00000000       0x18 d:/program files (x86)/microchip/xc32/v2.05/bin/bin/../../lib/gcc/pic32mx/4.8.3/../../../../pic32mx/lib/speed/micromips\libpic32.a(vector59.o)
 .reginfo       0x00000000       0x18 d:/program files (x86)/microchip/xc32/v2.05/bin/bin/../../lib/gcc/pic32mx/4.8.3/../../../../pic32mx/lib/speed/micromips\libpic32.a(vector60.o)
 .reginfo       0x00000000       0x18 d:/program files (x86)/microchip/xc32/v2.05/bin/bin/../../lib/gcc/pic32mx/4.8.3/../../../../pic32mx/lib/speed/micromips\libpic32.a(vector61.o)
 .reginfo       0x00000000       0x18 d:/program files (x86)/microchip/xc32/v2.05/bin/bin/../../lib/gcc/pic32mx/4.8.3/../../../../pic32mx/lib/speed/micromips\libpic32.a(vector62.o)
 .reginfo       0x00000000       0x18 d:/program files (x86)/microchip/xc32/v2.05/bin/bin/../../lib/gcc/pic32mx/4.8.3/../../../../pic32mx/lib/speed/micromips\libpic32.a(vector63.o)
 .reginfo       0x00000000       0x18 d:/program files (x86)/microchip/xc32/v2.05/bin/bin/../../lib/gcc/pic32mx/4.8.3/../../../../pic32mx/lib/speed/micromips\libpic32.a(vector64.o)
 .reginfo       0x00000000       0x18 d:/program files (x86)/microchip/xc32/v2.05/bin/bin/../../lib/gcc/pic32mx/4.8.3/../../../../pic32mx/lib/speed/micromips\libpic32.a(vector65.o)
 .reginfo       0x00000000       0x18 d:/program files (x86)/microchip/xc32/v2.05/bin/bin/../../lib/gcc/pic32mx/4.8.3/../../../../pic32mx/lib/speed/micromips\libpic32.a(vector66.o)
 .reginfo       0x00000000       0x18 d:/program files (x86)/microchip/xc32/v2.05/bin/bin/../../lib/gcc/pic32mx/4.8.3/../../../../pic32mx/lib/speed/micromips\libpic32.a(vector67.o)
 .reginfo       0x00000000       0x18 d:/program files (x86)/microchip/xc32/v2.05/bin/bin/../../lib/gcc/pic32mx/4.8.3/../../../../pic32mx/lib/speed/micromips\libpic32.a(vector68.o)
 .reginfo       0x00000000       0x18 d:/program files (x86)/microchip/xc32/v2.05/bin/bin/../../lib/gcc/pic32mx/4.8.3/../../../../pic32mx/lib/speed/micromips\libpic32.a(vector69.o)
 .reginfo       0x00000000       0x18 d:/program files (x86)/microchip/xc32/v2.05/bin/bin/../../lib/gcc/pic32mx/4.8.3/../../../../pic32mx/lib/speed/micromips\libpic32.a(vector70.o)
 .reginfo       0x00000000       0x18 d:/program files (x86)/microchip/xc32/v2.05/bin/bin/../../lib/gcc/pic32mx/4.8.3/../../../../pic32mx/lib/speed/micromips\libpic32.a(vector71.o)
 .reginfo       0x00000000       0x18 d:/program files (x86)/microchip/xc32/v2.05/bin/bin/../../lib/gcc/pic32mx/4.8.3/../../../../pic32mx/lib/speed/micromips\libpic32.a(vector72.o)
 .reginfo       0x00000000       0x18 d:/program files (x86)/microchip/xc32/v2.05/bin/bin/../../lib/gcc/pic32mx/4.8.3/../../../../pic32mx/lib/speed/micromips\libpic32.a(vector73.o)
 .reginfo       0x00000000       0x18 d:/program files (x86)/microchip/xc32/v2.05/bin/bin/../../lib/gcc/pic32mx/4.8.3/../../../../pic32mx/lib/speed/micromips\libpic32.a(vector74.o)
 .reginfo       0x00000000       0x18 d:/program files (x86)/microchip/xc32/v2.05/bin/bin/../../lib/gcc/pic32mx/4.8.3/../../../../pic32mx/lib/speed/micromips\libpic32.a(vector75.o)
 .reginfo       0x00000000       0x18 d:/program files (x86)/microchip/xc32/v2.05/bin/bin/../../lib/gcc/pic32mx/4.8.3/../../../../pic32mx/lib/speed/micromips\libpic32.a(vector76.o)
 .reginfo       0x00000000       0x18 d:/program files (x86)/microchip/xc32/v2.05/bin/bin/../../lib/gcc/pic32mx/4.8.3/../../../../pic32mx/lib/speed/micromips\libpic32.a(vector77.o)
 .reginfo       0x00000000       0x18 d:/program files (x86)/microchip/xc32/v2.05/bin/bin/../../lib/gcc/pic32mx/4.8.3/../../../../pic32mx/lib/speed/micromips\libpic32.a(vector78.o)
 .reginfo       0x00000000       0x18 d:/program files (x86)/microchip/xc32/v2.05/bin/bin/../../lib/gcc/pic32mx/4.8.3/../../../../pic32mx/lib/speed/micromips\libpic32.a(vector79.o)
 .reginfo       0x00000000       0x18 d:/program files (x86)/microchip/xc32/v2.05/bin/bin/../../lib/gcc/pic32mx/4.8.3/../../../../pic32mx/lib/speed/micromips\libpic32.a(vector80.o)
 .reginfo       0x00000000       0x18 d:/program files (x86)/microchip/xc32/v2.05/bin/bin/../../lib/gcc/pic32mx/4.8.3/../../../../pic32mx/lib/speed/micromips\libpic32.a(vector81.o)
 .reginfo       0x00000000       0x18 d:/program files (x86)/microchip/xc32/v2.05/bin/bin/../../lib/gcc/pic32mx/4.8.3/../../../../pic32mx/lib/speed/micromips\libpic32.a(vector82.o)
 .reginfo       0x00000000       0x18 d:/program files (x86)/microchip/xc32/v2.05/bin/bin/../../lib/gcc/pic32mx/4.8.3/../../../../pic32mx/lib/speed/micromips\libpic32.a(vector83.o)
 .reginfo       0x00000000       0x18 d:/program files (x86)/microchip/xc32/v2.05/bin/bin/../../lib/gcc/pic32mx/4.8.3/../../../../pic32mx/lib/speed/micromips\libpic32.a(vector84.o)
 .reginfo       0x00000000       0x18 d:/program files (x86)/microchip/xc32/v2.05/bin/bin/../../lib/gcc/pic32mx/4.8.3/../../../../pic32mx/lib/speed/micromips\libpic32.a(vector85.o)
 .reginfo       0x00000000       0x18 d:/program files (x86)/microchip/xc32/v2.05/bin/bin/../../lib/gcc/pic32mx/4.8.3/../../../../pic32mx/lib/speed/micromips\libpic32.a(vector86.o)
 .reginfo       0x00000000       0x18 d:/program files (x86)/microchip/xc32/v2.05/bin/bin/../../lib/gcc/pic32mx/4.8.3/../../../../pic32mx/lib/speed/micromips\libpic32.a(vector87.o)
 .reginfo       0x00000000       0x18 d:/program files (x86)/microchip/xc32/v2.05/bin/bin/../../lib/gcc/pic32mx/4.8.3/../../../../pic32mx/lib/speed/micromips\libpic32.a(vector88.o)
 .reginfo       0x00000000       0x18 d:/program files (x86)/microchip/xc32/v2.05/bin/bin/../../lib/gcc/pic32mx/4.8.3/../../../../pic32mx/lib/speed/micromips\libpic32.a(vector89.o)
 .reginfo       0x00000000       0x18 d:/program files (x86)/microchip/xc32/v2.05/bin/bin/../../lib/gcc/pic32mx/4.8.3/../../../../pic32mx/lib/speed/micromips\libpic32.a(vector90.o)
 .reginfo       0x00000000       0x18 d:/program files (x86)/microchip/xc32/v2.05/bin/bin/../../lib/gcc/pic32mx/4.8.3/../../../../pic32mx/lib/speed/micromips\libpic32.a(vector91.o)
 .reginfo       0x00000000       0x18 d:/program files (x86)/microchip/xc32/v2.05/bin/bin/../../lib/gcc/pic32mx/4.8.3/../../../../pic32mx/lib/speed/micromips\libpic32.a(vector92.o)
 .reginfo       0x00000000       0x18 d:/program files (x86)/microchip/xc32/v2.05/bin/bin/../../lib/gcc/pic32mx/4.8.3/../../../../pic32mx/lib/speed/micromips\libpic32.a(vector93.o)
 .reginfo       0x00000000       0x18 d:/program files (x86)/microchip/xc32/v2.05/bin/bin/../../lib/gcc/pic32mx/4.8.3/../../../../pic32mx/lib/speed/micromips\libpic32.a(vector94.o)
 .reginfo       0x00000000       0x18 d:/program files (x86)/microchip/xc32/v2.05/bin/bin/../../lib/gcc/pic32mx/4.8.3/../../../../pic32mx/lib/speed/micromips\libpic32.a(vector95.o)
 .reginfo       0x00000000       0x18 d:/program files (x86)/microchip/xc32/v2.05/bin/bin/../../lib/gcc/pic32mx/4.8.3/../../../../pic32mx/lib/speed/micromips\libpic32.a(vector96.o)
 .reginfo       0x00000000       0x18 d:/program files (x86)/microchip/xc32/v2.05/bin/bin/../../lib/gcc/pic32mx/4.8.3/../../../../pic32mx/lib/speed/micromips\libpic32.a(vector97.o)
 .reginfo       0x00000000       0x18 d:/program files (x86)/microchip/xc32/v2.05/bin/bin/../../lib/gcc/pic32mx/4.8.3/../../../../pic32mx/lib/speed/micromips\libpic32.a(vector98.o)
 .reginfo       0x00000000       0x18 d:/program files (x86)/microchip/xc32/v2.05/bin/bin/../../lib/gcc/pic32mx/4.8.3/../../../../pic32mx/lib/speed/micromips\libpic32.a(vector99.o)
 .reginfo       0x00000000       0x18 d:/program files (x86)/microchip/xc32/v2.05/bin/bin/../../lib/gcc/pic32mx/4.8.3/../../../../pic32mx/lib/speed/micromips\libpic32.a(vector100.o)
 .reginfo       0x00000000       0x18 d:/program files (x86)/microchip/xc32/v2.05/bin/bin/../../lib/gcc/pic32mx/4.8.3/../../../../pic32mx/lib/speed/micromips\libpic32.a(vector101.o)
 .reginfo       0x00000000       0x18 d:/program files (x86)/microchip/xc32/v2.05/bin/bin/../../lib/gcc/pic32mx/4.8.3/../../../../pic32mx/lib/speed/micromips\libpic32.a(defaultinterrupt.o)
 .reginfo       0x00000000       0x18 d:/program files (x86)/microchip/xc32/v2.05/bin/bin/../../lib/gcc/pic32mx/4.8.3/../../../../pic32mx/lib/speed/micromips\librcfops.a(sprcadd.o)
 .reginfo       0x00000000       0x18 d:/program files (x86)/microchip/xc32/v2.05/bin/bin/../../lib/gcc/pic32mx/4.8.3/../../../../pic32mx/lib/speed/micromips\librcfops.a(sprcdiv.o)
 .reginfo       0x00000000       0x18 d:/program files (x86)/microchip/xc32/v2.05/bin/bin/../../lib/gcc/pic32mx/4.8.3/../../../../pic32mx/lib/speed/micromips\librcfops.a(sprcmul.o)
 .reginfo       0x00000000       0x18 d:/program files (x86)/microchip/xc32/v2.05/bin/bin/../../lib/gcc/pic32mx/4.8.3/../../../../pic32mx/lib/speed/micromips\librcfops.a(sprcsubs.o)
 .reginfo       0x00000000       0x18 d:/program files (x86)/microchip/xc32/v2.05/bin/bin/../../lib/gcc/pic32mx/4.8.3/../../../../pic32mx/lib/speed/micromips\libm.a(fptoli.o)
 .reginfo       0x00000000       0x18 d:/program files (x86)/microchip/xc32/v2.05/bin/bin/../../lib/gcc/pic32mx/4.8.3/../../../../pic32mx/lib/speed/micromips\libm.a(sitofp.o)

Memory Configuration

Name             Origin             Length             Attributes
kseg0_data_mem   0x80000000         0x00008000         w !x
kseg1_data_mem   0xa0000000         0x00000200
kseg0_boot_mem   0x9fc00490         0x00000000
kseg1_boot_mem   0xbfc00000         0x00000490
kseg0_program_mem 0x9d000000         0x00040000         xr
debug_exec_mem   0x9fc00490         0x00000760
config_BFC01744  0xbfc01744         0x00000004
config_BFC01748  0xbfc01748         0x00000004
config_BFC0174C  0xbfc0174c         0x00000004
config_BFC01750  0xbfc01750         0x00000004
config_BFC01754  0xbfc01754         0x00000004
config_BFC01758  0xbfc01758         0x00000004
config_BFC01760  0xbfc01760         0x00000004
config_BFC017C4  0xbfc017c4         0x00000004
config_BFC017C8  0xbfc017c8         0x00000004
config_BFC017CC  0xbfc017cc         0x00000004
config_BFC017D0  0xbfc017d0         0x00000004
config_BFC017D4  0xbfc017d4         0x00000004
config_BFC017D8  0xbfc017d8         0x00000004
config_BFC017E0  0xbfc017e0         0x00000004
sfrs             0xbf800000         0x00100000
configsfrs_BFC01740 0xbfc01740         0x0000001c
configsfrs_BFC017C0 0xbfc017c0         0x0000001c
*default*        0x00000000         0xffffffff

Linker script and memory map


reserve_data_0_kseg0
                0x80000000      0x200
                0x80000000        0x2 SHORT 0x0
                0x000001fd                . = 0x1fd
 *fill*         0x80000002      0x1fb 
                0x80000200                . = ALIGN (0x4)
 *fill*         0x800001fd        0x3 

reserve_data_0_kseg1
                0xa0000000      0x200
                0xa0000000        0x2 SHORT 0x0
                0x000001fd                . = 0x1fd
 *fill*         0xa0000002      0x1fb 
                0xa0000200                . = ALIGN (0x4)
 *fill*         0xa00001fd        0x3 

reserve_boot_0x1fc00490_kseg0
                0x9fc00490     0x1270
                0x9fc00490        0x2 SHORT 0x0
                0x00000760                . = 0x760
 *fill*         0x9fc00492      0x75e 
                0x9fc00bf0                . = ALIGN (0x4)
                0x9fc00bf0        0x2 SHORT 0x0
                0x00001270                . = 0x1270
 *fill*         0x9fc00bf2      0xb0e 
                0x9fc01700                . = ALIGN (0x4)

reserve_boot_0x1fc00490_kseg1
                0xbfc00490     0x1270
                0xbfc00490        0x2 SHORT 0x0
                0x00000760                . = 0x760
 *fill*         0xbfc00492      0x75e 
                0xbfc00bf0                . = ALIGN (0x4)
                0xbfc00bf0        0x2 SHORT 0x0
                0x00001270                . = 0x1270
 *fill*         0xbfc00bf2      0xb0e 
                0xbfc01700                . = ALIGN (0x4)
LOAD d:/program files (x86)/microchip/xc32/v2.05/bin/bin/../../lib/gcc/pic32mx/4.8.3/../../../../pic32mx/lib/./proc/32MM0256GPM048/crt0_micromips.o
LOAD d:/program files (x86)/microchip/xc32/v2.05/bin/bin/../../lib/gcc/pic32mx/4.8.3/../../../../pic32mx/lib/speed/micromips\software-debug-break.o
LOAD build/default/debug/asm_macro.o
LOAD build/default/debug/clock_cfgBits_mm.o
LOAD build/default/debug/clock_cfgBits_mz.o
LOAD build/default/debug/netcom2.o
LOAD build/default/debug/main.o
LOAD build/default/debug/globals.o
LOAD build/default/debug/timer1.o
LOAD build/default/debug/core_fn.o
LOAD build/default/debug/_display/ili9341/disp9341.o
LOAD build/default/debug/_display/ili9341/disp16_asm.o
LOAD build/default/debug/_display/ssd1306/disp1306.o
LOAD build/default/debug/_display/graphics.o
LOAD build/default/debug/rtc.o
LOAD build/default/debug/change_notif_mz.o
LOAD build/default/debug/change_notif_mm.o
LOAD build/default/debug/spi.o
LOAD build/default/debug/portWriter.o
LOAD build/default/debug/ubtn2.o
LOAD build/default/debug/_touchpad/touchXpt2046.o
LOAD build/default/debug/periph.o
LOAD build/default/debug/periph_fn.o
LOAD build/default/debug/app1.o
LOAD build/default/debug/app2.o
LOAD build/default/debug/app3.o
LOAD build/default/debug/user_apps.o
                0x00000001                __MPLAB_BUILD = 0x1
                0x00000001                __MPLAB_DEBUG = 0x1
                0x00000001                __DEBUG = 0x1
                0x00000001                ICD3PlatformTool = 0x1
LOAD d:/program files (x86)/microchip/xc32/v2.05/bin/bin/../../lib/gcc/pic32mx/4.8.3/../../../../pic32mx/lib/./proc/32MM0256GPM048\default_isr_vectors.o
LOAD d:/program files (x86)/microchip/xc32/v2.05/bin/bin/../../lib/gcc/pic32mx/4.8.3/../../../../pic32mx/lib/speed/micromips\pic32_software_reset-mm.o
                0x00000400                PROVIDE (_min_stack_size, 0x400)
LOAD d:/program files (x86)/microchip/xc32/v2.05/bin/bin/../../lib/gcc/pic32mx/4.8.3/../../../../pic32mx/lib/./proc/32MM0256GPM048\processor.o
                0x00000001                PROVIDE (_vector_spacing, 0x1)
                0x9d000000                PROVIDE (_ebase_address, 0x9d000000)
                0xbfc00000                _RESET_ADDR = 0xbfc00000
                0xbfc00380                _BEV_EXCPT_ADDR = 0xbfc00380
                0xbfc00480                _DBG_EXCPT_ADDR = 0xbfc00480
                0x9fc00490                _DBG_CODE_ADDR = 0x9fc00490
                0x00000760                _DBG_CODE_SIZE = 0x760
                0x9d000000                _SIMPLE_TLB_REFILL_EXCPT_ADDR = (_ebase_address + 0x0)
                0x9d000180                _GEN_EXCPT_ADDR = (_ebase_address + 0x180)

.config_BFC01744
 *(.config_BFC01744)

.config_BFC01748
 *(.config_BFC01748)

.config_BFC0174C
 *(.config_BFC0174C)

.config_BFC01750
 *(.config_BFC01750)

.config_BFC01754
 *(.config_BFC01754)

.config_BFC01758
 *(.config_BFC01758)

.config_BFC01760
 *(.config_BFC01760)

.config_BFC017C4
                0xbfc017c4        0x4
 *(.config_BFC017C4)
 .config_BFC017C4
                0xbfc017c4        0x4 build/default/debug/clock_cfgBits_mm.o

.config_BFC017C8
                0xbfc017c8        0x4
 *(.config_BFC017C8)
 .config_BFC017C8
                0xbfc017c8        0x4 build/default/debug/clock_cfgBits_mm.o

.config_BFC017CC
                0xbfc017cc        0x4
 *(.config_BFC017CC)
 .config_BFC017CC
                0xbfc017cc        0x4 build/default/debug/clock_cfgBits_mm.o

.config_BFC017D0
                0xbfc017d0        0x4
 *(.config_BFC017D0)
 .config_BFC017D0
                0xbfc017d0        0x4 build/default/debug/clock_cfgBits_mm.o

.config_BFC017D4
                0xbfc017d4        0x4
 *(.config_BFC017D4)
 .config_BFC017D4
                0xbfc017d4        0x4 build/default/debug/clock_cfgBits_mm.o

.config_BFC017D8
                0xbfc017d8        0x4
 *(.config_BFC017D8)
 .config_BFC017D8
                0xbfc017d8        0x4 build/default/debug/clock_cfgBits_mm.o

.config_BFC017E0
 *(.config_BFC017E0)

.reset          0xbfc00000      0x1cc
 *(.reset)
 .reset         0xbfc00000        0x8 d:/program files (x86)/microchip/xc32/v2.05/bin/bin/../../lib/gcc/pic32mx/4.8.3/../../../../pic32mx/lib/./proc/32MM0256GPM048/crt0_micromips.o
                0xbfc00001                _reset
 *(.reset.startup)
 .reset.startup
                0xbfc00008      0x1c4 d:/program files (x86)/microchip/xc32/v2.05/bin/bin/../../lib/gcc/pic32mx/4.8.3/../../../../pic32mx/lib/./proc/32MM0256GPM048/crt0_micromips.o
                0xbfc00009                _startup

.bev_excpt      0xbfc00380        0xc
 *(.bev_handler)
 .bev_handler   0xbfc00380        0xc d:/program files (x86)/microchip/xc32/v2.05/bin/bin/../../lib/gcc/pic32mx/4.8.3/../../../../pic32mx/lib/./proc/32MM0256GPM048/crt0_micromips.o

.dbg_excpt      0xbfc00480        0x0
                0xbfc00480                . = (. + DEFINED (_DEBUGGER)?0x8:0x0)

.dbg_code       0x9fc00490        0x0
                0x9fc00490                . = (. + DEFINED (_DEBUGGER)?_DBG_CODE_SIZE:0x0)

.app_excpt      0x9d000180        0xc
 *(.gen_handler)
 .gen_handler   0x9d000180        0xc d:/program files (x86)/microchip/xc32/v2.05/bin/bin/../../lib/gcc/pic32mx/4.8.3/../../../../pic32mx/lib/./proc/32MM0256GPM048/crt0_micromips.o

.vector_0       0x9d000200        0x8
 *(.vector_0)
 .vector_0      0x9d000200        0x8 build/default/debug/main.o
                0x9d000201                __vector_dispatch_0
                0x00000001                ASSERT (((_vector_spacing == 0x0) || (SIZEOF (.vector_0) <= (_vector_spacing << 0x3))), function at exception vector 0 too large)

.vector_1       0x9d000208        0x8
 *(.vector_1)
 .vector_1      0x9d000208        0x8 d:/program files (x86)/microchip/xc32/v2.05/bin/bin/../../lib/gcc/pic32mx/4.8.3/../../../../pic32mx/lib/speed/micromips\libpic32.a(vector1.o)
                0x9d000209                __vector_dispatch_1
                0x00000001                ASSERT (((_vector_spacing == 0x0) || (SIZEOF (.vector_1) <= (_vector_spacing << 0x3))), function at exception vector 1 too large)

.vector_2       0x9d000210        0x8
 *(.vector_2)
 .vector_2      0x9d000210        0x8 d:/program files (x86)/microchip/xc32/v2.05/bin/bin/../../lib/gcc/pic32mx/4.8.3/../../../../pic32mx/lib/speed/micromips\libpic32.a(vector2.o)
                0x9d000211                __vector_dispatch_2
                0x00000001                ASSERT (((_vector_spacing == 0x0) || (SIZEOF (.vector_2) <= (_vector_spacing << 0x3))), function at exception vector 2 too large)

.vector_3       0x9d000218        0x8
 *(.vector_3)
 .vector_3      0x9d000218        0x8 d:/program files (x86)/microchip/xc32/v2.05/bin/bin/../../lib/gcc/pic32mx/4.8.3/../../../../pic32mx/lib/speed/micromips\libpic32.a(vector3.o)
                0x9d000219                __vector_dispatch_3
                0x00000001                ASSERT (((_vector_spacing == 0x0) || (SIZEOF (.vector_3) <= (_vector_spacing << 0x3))), function at exception vector 3 too large)

.vector_4       0x9d000220        0x8
 *(.vector_4)
 .vector_4      0x9d000220        0x8 d:/program files (x86)/microchip/xc32/v2.05/bin/bin/../../lib/gcc/pic32mx/4.8.3/../../../../pic32mx/lib/speed/micromips\libpic32.a(vector4.o)
                0x9d000221                __vector_dispatch_4
                0x00000001                ASSERT (((_vector_spacing == 0x0) || (SIZEOF (.vector_4) <= (_vector_spacing << 0x3))), function at exception vector 4 too large)

.vector_5       0x9d000228        0x8
 *(.vector_5)
 .vector_5      0x9d000228        0x8 d:/program files (x86)/microchip/xc32/v2.05/bin/bin/../../lib/gcc/pic32mx/4.8.3/../../../../pic32mx/lib/speed/micromips\libpic32.a(vector5.o)
                0x9d000229                __vector_dispatch_5
                0x00000001                ASSERT (((_vector_spacing == 0x0) || (SIZEOF (.vector_5) <= (_vector_spacing << 0x3))), function at exception vector 5 too large)

.vector_6       0x9d000230        0x8
 *(.vector_6)
 .vector_6      0x9d000230        0x8 d:/program files (x86)/microchip/xc32/v2.05/bin/bin/../../lib/gcc/pic32mx/4.8.3/../../../../pic32mx/lib/speed/micromips\libpic32.a(vector6.o)
                0x9d000231                __vector_dispatch_6
                0x00000001                ASSERT (((_vector_spacing == 0x0) || (SIZEOF (.vector_6) <= (_vector_spacing << 0x3))), function at exception vector 6 too large)

.vector_7       0x9d000238        0x8
 *(.vector_7)
 .vector_7      0x9d000238        0x8 d:/program files (x86)/microchip/xc32/v2.05/bin/bin/../../lib/gcc/pic32mx/4.8.3/../../../../pic32mx/lib/speed/micromips\libpic32.a(vector7.o)
                0x9d000239                __vector_dispatch_7
                0x00000001                ASSERT (((_vector_spacing == 0x0) || (SIZEOF (.vector_7) <= (_vector_spacing << 0x3))), function at exception vector 7 too large)

.vector_8       0x9d000240        0x8
 *(.vector_8)
 .vector_8      0x9d000240        0x8 build/default/debug/main.o
                0x9d000241                __vector_dispatch_8
                0x00000001                ASSERT (((_vector_spacing == 0x0) || (SIZEOF (.vector_8) <= (_vector_spacing << 0x3))), function at exception vector 8 too large)

.vector_9       0x9d000248        0x8
 *(.vector_9)
 .vector_9      0x9d000248        0x8 build/default/debug/main.o
                0x9d000249                __vector_dispatch_9
                0x00000001                ASSERT (((_vector_spacing == 0x0) || (SIZEOF (.vector_9) <= (_vector_spacing << 0x3))), function at exception vector 9 too large)

.vector_10      0x9d000250        0x8
 *(.vector_10)
 .vector_10     0x9d000250        0x8 build/default/debug/main.o
                0x9d000251                __vector_dispatch_10
                0x00000001                ASSERT (((_vector_spacing == 0x0) || (SIZEOF (.vector_10) <= (_vector_spacing << 0x3))), function at exception vector 10 too large)

.vector_11      0x9d000258        0x8
 *(.vector_11)
 .vector_11     0x9d000258        0x8 build/default/debug/main.o
                0x9d000259                __vector_dispatch_11
                0x00000001                ASSERT (((_vector_spacing == 0x0) || (SIZEOF (.vector_11) <= (_vector_spacing << 0x3))), function at exception vector 11 too large)

.vector_12      0x9d000260        0x8
 *(.vector_12)
 .vector_12     0x9d000260        0x8 d:/program files (x86)/microchip/xc32/v2.05/bin/bin/../../lib/gcc/pic32mx/4.8.3/../../../../pic32mx/lib/speed/micromips\libpic32.a(vector12.o)
                0x9d000261                __vector_dispatch_12
                0x00000001                ASSERT (((_vector_spacing == 0x0) || (SIZEOF (.vector_12) <= (_vector_spacing << 0x3))), function at exception vector 12 too large)

.vector_13      0x9d000268        0x8
 *(.vector_13)
 .vector_13     0x9d000268        0x8 d:/program files (x86)/microchip/xc32/v2.05/bin/bin/../../lib/gcc/pic32mx/4.8.3/../../../../pic32mx/lib/speed/micromips\libpic32.a(vector13.o)
                0x9d000269                __vector_dispatch_13
                0x00000001                ASSERT (((_vector_spacing == 0x0) || (SIZEOF (.vector_13) <= (_vector_spacing << 0x3))), function at exception vector 13 too large)

.vector_14      0x9d000270        0x8
 *(.vector_14)
 .vector_14     0x9d000270        0x8 d:/program files (x86)/microchip/xc32/v2.05/bin/bin/../../lib/gcc/pic32mx/4.8.3/../../../../pic32mx/lib/speed/micromips\libpic32.a(vector14.o)
                0x9d000271                __vector_dispatch_14
                0x00000001                ASSERT (((_vector_spacing == 0x0) || (SIZEOF (.vector_14) <= (_vector_spacing << 0x3))), function at exception vector 14 too large)

.vector_15      0x9d000278        0x8
 *(.vector_15)
 .vector_15     0x9d000278        0x8 d:/program files (x86)/microchip/xc32/v2.05/bin/bin/../../lib/gcc/pic32mx/4.8.3/../../../../pic32mx/lib/speed/micromips\libpic32.a(vector15.o)
                0x9d000279                __vector_dispatch_15
                0x00000001                ASSERT (((_vector_spacing == 0x0) || (SIZEOF (.vector_15) <= (_vector_spacing << 0x3))), function at exception vector 15 too large)

.vector_16      0x9d000280        0x8
 *(.vector_16)
 .vector_16     0x9d000280        0x8 d:/program files (x86)/microchip/xc32/v2.05/bin/bin/../../lib/gcc/pic32mx/4.8.3/../../../../pic32mx/lib/speed/micromips\libpic32.a(vector16.o)
                0x9d000281                __vector_dispatch_16
                0x00000001                ASSERT (((_vector_spacing == 0x0) || (SIZEOF (.vector_16) <= (_vector_spacing << 0x3))), function at exception vector 16 too large)

.vector_17      0x9d000288        0x8
 *(.vector_17)
 .vector_17     0x9d000288        0x8 build/default/debug/main.o
                0x9d000289                __vector_dispatch_17
                0x00000001                ASSERT (((_vector_spacing == 0x0) || (SIZEOF (.vector_17) <= (_vector_spacing << 0x3))), function at exception vector 17 too large)

.vector_18      0x9d000290        0x8
 *(.vector_18)
 .vector_18     0x9d000290        0x8 d:/program files (x86)/microchip/xc32/v2.05/bin/bin/../../lib/gcc/pic32mx/4.8.3/../../../../pic32mx/lib/speed/micromips\libpic32.a(vector18.o)
                0x9d000291                __vector_dispatch_18
                0x00000001                ASSERT (((_vector_spacing == 0x0) || (SIZEOF (.vector_18) <= (_vector_spacing << 0x3))), function at exception vector 18 too large)

.vector_19      0x9d000298        0x8
 *(.vector_19)
 .vector_19     0x9d000298        0x8 d:/program files (x86)/microchip/xc32/v2.05/bin/bin/../../lib/gcc/pic32mx/4.8.3/../../../../pic32mx/lib/speed/micromips\libpic32.a(vector19.o)
                0x9d000299                __vector_dispatch_19
                0x00000001                ASSERT (((_vector_spacing == 0x0) || (SIZEOF (.vector_19) <= (_vector_spacing << 0x3))), function at exception vector 19 too large)

.vector_20      0x9d0002a0        0x8
 *(.vector_20)
 .vector_20     0x9d0002a0        0x8 d:/program files (x86)/microchip/xc32/v2.05/bin/bin/../../lib/gcc/pic32mx/4.8.3/../../../../pic32mx/lib/speed/micromips\libpic32.a(vector20.o)
                0x9d0002a1                __vector_dispatch_20
                0x00000001                ASSERT (((_vector_spacing == 0x0) || (SIZEOF (.vector_20) <= (_vector_spacing << 0x3))), function at exception vector 20 too large)

.vector_21      0x9d0002a8        0x8
 *(.vector_21)
 .vector_21     0x9d0002a8        0x8 d:/program files (x86)/microchip/xc32/v2.05/bin/bin/../../lib/gcc/pic32mx/4.8.3/../../../../pic32mx/lib/speed/micromips\libpic32.a(vector21.o)
                0x9d0002a9                __vector_dispatch_21
                0x00000001                ASSERT (((_vector_spacing == 0x0) || (SIZEOF (.vector_21) <= (_vector_spacing << 0x3))), function at exception vector 21 too large)

.vector_22      0x9d0002b0        0x8
 *(.vector_22)
 .vector_22     0x9d0002b0        0x8 d:/program files (x86)/microchip/xc32/v2.05/bin/bin/../../lib/gcc/pic32mx/4.8.3/../../../../pic32mx/lib/speed/micromips\libpic32.a(vector22.o)
                0x9d0002b1                __vector_dispatch_22
                0x00000001                ASSERT (((_vector_spacing == 0x0) || (SIZEOF (.vector_22) <= (_vector_spacing << 0x3))), function at exception vector 22 too large)

.vector_23      0x9d0002b8        0x8
 *(.vector_23)
 .vector_23     0x9d0002b8        0x8 d:/program files (x86)/microchip/xc32/v2.05/bin/bin/../../lib/gcc/pic32mx/4.8.3/../../../../pic32mx/lib/speed/micromips\libpic32.a(vector23.o)
                0x9d0002b9                __vector_dispatch_23
                0x00000001                ASSERT (((_vector_spacing == 0x0) || (SIZEOF (.vector_23) <= (_vector_spacing << 0x3))), function at exception vector 23 too large)

.vector_24      0x9d0002c0        0x8
 *(.vector_24)
 .vector_24     0x9d0002c0        0x8 d:/program files (x86)/microchip/xc32/v2.05/bin/bin/../../lib/gcc/pic32mx/4.8.3/../../../../pic32mx/lib/speed/micromips\libpic32.a(vector24.o)
                0x9d0002c1                __vector_dispatch_24
                0x00000001                ASSERT (((_vector_spacing == 0x0) || (SIZEOF (.vector_24) <= (_vector_spacing << 0x3))), function at exception vector 24 too large)

.vector_25      0x9d0002c8        0x8
 *(.vector_25)
 .vector_25     0x9d0002c8        0x8 d:/program files (x86)/microchip/xc32/v2.05/bin/bin/../../lib/gcc/pic32mx/4.8.3/../../../../pic32mx/lib/speed/micromips\libpic32.a(vector25.o)
                0x9d0002c9                __vector_dispatch_25
                0x00000001                ASSERT (((_vector_spacing == 0x0) || (SIZEOF (.vector_25) <= (_vector_spacing << 0x3))), function at exception vector 25 too large)

.vector_26      0x9d0002d0        0x8
 *(.vector_26)
 .vector_26     0x9d0002d0        0x8 d:/program files (x86)/microchip/xc32/v2.05/bin/bin/../../lib/gcc/pic32mx/4.8.3/../../../../pic32mx/lib/speed/micromips\libpic32.a(vector26.o)
                0x9d0002d1                __vector_dispatch_26
                0x00000001                ASSERT (((_vector_spacing == 0x0) || (SIZEOF (.vector_26) <= (_vector_spacing << 0x3))), function at exception vector 26 too large)

.vector_27      0x9d0002d8        0x8
 *(.vector_27)
 .vector_27     0x9d0002d8        0x8 d:/program files (x86)/microchip/xc32/v2.05/bin/bin/../../lib/gcc/pic32mx/4.8.3/../../../../pic32mx/lib/speed/micromips\libpic32.a(vector27.o)
                0x9d0002d9                __vector_dispatch_27
                0x00000001                ASSERT (((_vector_spacing == 0x0) || (SIZEOF (.vector_27) <= (_vector_spacing << 0x3))), function at exception vector 27 too large)

.vector_28      0x9d0002e0        0x8
 *(.vector_28)
 .vector_28     0x9d0002e0        0x8 d:/program files (x86)/microchip/xc32/v2.05/bin/bin/../../lib/gcc/pic32mx/4.8.3/../../../../pic32mx/lib/speed/micromips\libpic32.a(vector28.o)
                0x9d0002e1                __vector_dispatch_28
                0x00000001                ASSERT (((_vector_spacing == 0x0) || (SIZEOF (.vector_28) <= (_vector_spacing << 0x3))), function at exception vector 28 too large)

.vector_29      0x9d0002e8        0x8
 *(.vector_29)
 .vector_29     0x9d0002e8        0x8 d:/program files (x86)/microchip/xc32/v2.05/bin/bin/../../lib/gcc/pic32mx/4.8.3/../../../../pic32mx/lib/speed/micromips\libpic32.a(vector29.o)
                0x9d0002e9                __vector_dispatch_29
                0x00000001                ASSERT (((_vector_spacing == 0x0) || (SIZEOF (.vector_29) <= (_vector_spacing << 0x3))), function at exception vector 29 too large)

.vector_30      0x9d0002f0        0x8
 *(.vector_30)
 .vector_30     0x9d0002f0        0x8 d:/program files (x86)/microchip/xc32/v2.05/bin/bin/../../lib/gcc/pic32mx/4.8.3/../../../../pic32mx/lib/speed/micromips\libpic32.a(vector30.o)
                0x9d0002f1                __vector_dispatch_30
                0x00000001                ASSERT (((_vector_spacing == 0x0) || (SIZEOF (.vector_30) <= (_vector_spacing << 0x3))), function at exception vector 30 too large)

.vector_31      0x9d0002f8        0x8
 *(.vector_31)
 .vector_31     0x9d0002f8        0x8 d:/program files (x86)/microchip/xc32/v2.05/bin/bin/../../lib/gcc/pic32mx/4.8.3/../../../../pic32mx/lib/speed/micromips\libpic32.a(vector31.o)
                0x9d0002f9                __vector_dispatch_31
                0x00000001                ASSERT (((_vector_spacing == 0x0) || (SIZEOF (.vector_31) <= (_vector_spacing << 0x3))), function at exception vector 31 too large)

.vector_32      0x9d000300        0x8
 *(.vector_32)
 .vector_32     0x9d000300        0x8 build/default/debug/main.o
                0x9d000301                __vector_dispatch_32
                0x00000001                ASSERT (((_vector_spacing == 0x0) || (SIZEOF (.vector_32) <= (_vector_spacing << 0x3))), function at exception vector 32 too large)

.vector_33      0x9d000308        0x8
 *(.vector_33)
 .vector_33     0x9d000308        0x8 d:/program files (x86)/microchip/xc32/v2.05/bin/bin/../../lib/gcc/pic32mx/4.8.3/../../../../pic32mx/lib/speed/micromips\libpic32.a(vector33.o)
                0x9d000309                __vector_dispatch_33
                0x00000001                ASSERT (((_vector_spacing == 0x0) || (SIZEOF (.vector_33) <= (_vector_spacing << 0x3))), function at exception vector 33 too large)

.vector_34      0x9d000310        0x8
 *(.vector_34)
 .vector_34     0x9d000310        0x8 d:/program files (x86)/microchip/xc32/v2.05/bin/bin/../../lib/gcc/pic32mx/4.8.3/../../../../pic32mx/lib/speed/micromips\libpic32.a(vector34.o)
                0x9d000311                __vector_dispatch_34
                0x00000001                ASSERT (((_vector_spacing == 0x0) || (SIZEOF (.vector_34) <= (_vector_spacing << 0x3))), function at exception vector 34 too large)

.vector_35      0x9d000318        0x8
 *(.vector_35)
 .vector_35     0x9d000318        0x8 d:/program files (x86)/microchip/xc32/v2.05/bin/bin/../../lib/gcc/pic32mx/4.8.3/../../../../pic32mx/lib/speed/micromips\libpic32.a(vector35.o)
                0x9d000319                __vector_dispatch_35
                0x00000001                ASSERT (((_vector_spacing == 0x0) || (SIZEOF (.vector_35) <= (_vector_spacing << 0x3))), function at exception vector 35 too large)

.vector_36      0x9d000320        0x8
 *(.vector_36)
 .vector_36     0x9d000320        0x8 d:/program files (x86)/microchip/xc32/v2.05/bin/bin/../../lib/gcc/pic32mx/4.8.3/../../../../pic32mx/lib/speed/micromips\libpic32.a(vector36.o)
                0x9d000321                __vector_dispatch_36
                0x00000001                ASSERT (((_vector_spacing == 0x0) || (SIZEOF (.vector_36) <= (_vector_spacing << 0x3))), function at exception vector 36 too large)

.vector_37      0x9d000328        0x8
 *(.vector_37)
 .vector_37     0x9d000328        0x8 d:/program files (x86)/microchip/xc32/v2.05/bin/bin/../../lib/gcc/pic32mx/4.8.3/../../../../pic32mx/lib/speed/micromips\libpic32.a(vector37.o)
                0x9d000329                __vector_dispatch_37
                0x00000001                ASSERT (((_vector_spacing == 0x0) || (SIZEOF (.vector_37) <= (_vector_spacing << 0x3))), function at exception vector 37 too large)

.vector_38      0x9d000330        0x8
 *(.vector_38)
 .vector_38     0x9d000330        0x8 d:/program files (x86)/microchip/xc32/v2.05/bin/bin/../../lib/gcc/pic32mx/4.8.3/../../../../pic32mx/lib/speed/micromips\libpic32.a(vector38.o)
                0x9d000331                __vector_dispatch_38
                0x00000001                ASSERT (((_vector_spacing == 0x0) || (SIZEOF (.vector_38) <= (_vector_spacing << 0x3))), function at exception vector 38 too large)

.vector_39      0x9d000338        0x8
 *(.vector_39)
 .vector_39     0x9d000338        0x8 d:/program files (x86)/microchip/xc32/v2.05/bin/bin/../../lib/gcc/pic32mx/4.8.3/../../../../pic32mx/lib/speed/micromips\libpic32.a(vector39.o)
                0x9d000339                __vector_dispatch_39
                0x00000001                ASSERT (((_vector_spacing == 0x0) || (SIZEOF (.vector_39) <= (_vector_spacing << 0x3))), function at exception vector 39 too large)

.vector_40      0x9d000340        0x8
 *(.vector_40)
 .vector_40     0x9d000340        0x8 d:/program files (x86)/microchip/xc32/v2.05/bin/bin/../../lib/gcc/pic32mx/4.8.3/../../../../pic32mx/lib/speed/micromips\libpic32.a(vector40.o)
                0x9d000341                __vector_dispatch_40
                0x00000001                ASSERT (((_vector_spacing == 0x0) || (SIZEOF (.vector_40) <= (_vector_spacing << 0x3))), function at exception vector 40 too large)

.vector_41      0x9d000348        0x8
 *(.vector_41)
 .vector_41     0x9d000348        0x8 d:/program files (x86)/microchip/xc32/v2.05/bin/bin/../../lib/gcc/pic32mx/4.8.3/../../../../pic32mx/lib/speed/micromips\libpic32.a(vector41.o)
                0x9d000349                __vector_dispatch_41
                0x00000001                ASSERT (((_vector_spacing == 0x0) || (SIZEOF (.vector_41) <= (_vector_spacing << 0x3))), function at exception vector 41 too large)

.vector_42      0x9d000350        0x8
 *(.vector_42)
 .vector_42     0x9d000350        0x8 d:/program files (x86)/microchip/xc32/v2.05/bin/bin/../../lib/gcc/pic32mx/4.8.3/../../../../pic32mx/lib/speed/micromips\libpic32.a(vector42.o)
                0x9d000351                __vector_dispatch_42
                0x00000001                ASSERT (((_vector_spacing == 0x0) || (SIZEOF (.vector_42) <= (_vector_spacing << 0x3))), function at exception vector 42 too large)

.vector_43      0x9d000358        0x8
 *(.vector_43)
 .vector_43     0x9d000358        0x8 d:/program files (x86)/microchip/xc32/v2.05/bin/bin/../../lib/gcc/pic32mx/4.8.3/../../../../pic32mx/lib/speed/micromips\libpic32.a(vector43.o)
                0x9d000359                __vector_dispatch_43
                0x00000001                ASSERT (((_vector_spacing == 0x0) || (SIZEOF (.vector_43) <= (_vector_spacing << 0x3))), function at exception vector 43 too large)

.vector_44      0x9d000360        0x8
 *(.vector_44)
 .vector_44     0x9d000360        0x8 d:/program files (x86)/microchip/xc32/v2.05/bin/bin/../../lib/gcc/pic32mx/4.8.3/../../../../pic32mx/lib/speed/micromips\libpic32.a(vector44.o)
                0x9d000361                __vector_dispatch_44
                0x00000001                ASSERT (((_vector_spacing == 0x0) || (SIZEOF (.vector_44) <= (_vector_spacing << 0x3))), function at exception vector 44 too large)

.vector_45      0x9d000368        0x8
 *(.vector_45)
 .vector_45     0x9d000368        0x8 build/default/debug/main.o
                0x9d000369                __vector_dispatch_45
                0x00000001                ASSERT (((_vector_spacing == 0x0) || (SIZEOF (.vector_45) <= (_vector_spacing << 0x3))), function at exception vector 45 too large)

.vector_46      0x9d000370        0x8
 *(.vector_46)
 .vector_46     0x9d000370        0x8 d:/program files (x86)/microchip/xc32/v2.05/bin/bin/../../lib/gcc/pic32mx/4.8.3/../../../../pic32mx/lib/speed/micromips\libpic32.a(vector46.o)
                0x9d000371                __vector_dispatch_46
                0x00000001                ASSERT (((_vector_spacing == 0x0) || (SIZEOF (.vector_46) <= (_vector_spacing << 0x3))), function at exception vector 46 too large)

.vector_47      0x9d000378        0x8
 *(.vector_47)
 .vector_47     0x9d000378        0x8 d:/program files (x86)/microchip/xc32/v2.05/bin/bin/../../lib/gcc/pic32mx/4.8.3/../../../../pic32mx/lib/speed/micromips\libpic32.a(vector47.o)
                0x9d000379                __vector_dispatch_47
                0x00000001                ASSERT (((_vector_spacing == 0x0) || (SIZEOF (.vector_47) <= (_vector_spacing << 0x3))), function at exception vector 47 too large)

.vector_48      0x9d000380        0x8
 *(.vector_48)
 .vector_48     0x9d000380        0x8 d:/program files (x86)/microchip/xc32/v2.05/bin/bin/../../lib/gcc/pic32mx/4.8.3/../../../../pic32mx/lib/speed/micromips\libpic32.a(vector48.o)
                0x9d000381                __vector_dispatch_48
                0x00000001                ASSERT (((_vector_spacing == 0x0) || (SIZEOF (.vector_48) <= (_vector_spacing << 0x3))), function at exception vector 48 too large)

.vector_49      0x9d000388        0x8
 *(.vector_49)
 .vector_49     0x9d000388        0x8 d:/program files (x86)/microchip/xc32/v2.05/bin/bin/../../lib/gcc/pic32mx/4.8.3/../../../../pic32mx/lib/speed/micromips\libpic32.a(vector49.o)
                0x9d000389                __vector_dispatch_49
                0x00000001                ASSERT (((_vector_spacing == 0x0) || (SIZEOF (.vector_49) <= (_vector_spacing << 0x3))), function at exception vector 49 too large)

.vector_50      0x9d000390        0x8
 *(.vector_50)
 .vector_50     0x9d000390        0x8 d:/program files (x86)/microchip/xc32/v2.05/bin/bin/../../lib/gcc/pic32mx/4.8.3/../../../../pic32mx/lib/speed/micromips\libpic32.a(vector50.o)
                0x9d000391                __vector_dispatch_50
                0x00000001                ASSERT (((_vector_spacing == 0x0) || (SIZEOF (.vector_50) <= (_vector_spacing << 0x3))), function at exception vector 50 too large)

.vector_51      0x9d000398        0x8
 *(.vector_51)
 .vector_51     0x9d000398        0x8 d:/program files (x86)/microchip/xc32/v2.05/bin/bin/../../lib/gcc/pic32mx/4.8.3/../../../../pic32mx/lib/speed/micromips\libpic32.a(vector51.o)
                0x9d000399                __vector_dispatch_51
                0x00000001                ASSERT (((_vector_spacing == 0x0) || (SIZEOF (.vector_51) <= (_vector_spacing << 0x3))), function at exception vector 51 too large)

.vector_52      0x9d0003a0        0x8
 *(.vector_52)
 .vector_52     0x9d0003a0        0x8 d:/program files (x86)/microchip/xc32/v2.05/bin/bin/../../lib/gcc/pic32mx/4.8.3/../../../../pic32mx/lib/speed/micromips\libpic32.a(vector52.o)
                0x9d0003a1                __vector_dispatch_52
                0x00000001                ASSERT (((_vector_spacing == 0x0) || (SIZEOF (.vector_52) <= (_vector_spacing << 0x3))), function at exception vector 52 too large)

.vector_53      0x9d0003a8        0x8
 *(.vector_53)
 .vector_53     0x9d0003a8        0x8 d:/program files (x86)/microchip/xc32/v2.05/bin/bin/../../lib/gcc/pic32mx/4.8.3/../../../../pic32mx/lib/speed/micromips\libpic32.a(vector53.o)
                0x9d0003a9                __vector_dispatch_53
                0x00000001                ASSERT (((_vector_spacing == 0x0) || (SIZEOF (.vector_53) <= (_vector_spacing << 0x3))), function at exception vector 53 too large)

.vector_54      0x9d0003b0        0x8
 *(.vector_54)
 .vector_54     0x9d0003b0        0x8 d:/program files (x86)/microchip/xc32/v2.05/bin/bin/../../lib/gcc/pic32mx/4.8.3/../../../../pic32mx/lib/speed/micromips\libpic32.a(vector54.o)
                0x9d0003b1                __vector_dispatch_54
                0x00000001                ASSERT (((_vector_spacing == 0x0) || (SIZEOF (.vector_54) <= (_vector_spacing << 0x3))), function at exception vector 54 too large)

.vector_55      0x9d0003b8        0x8
 *(.vector_55)
 .vector_55     0x9d0003b8        0x8 d:/program files (x86)/microchip/xc32/v2.05/bin/bin/../../lib/gcc/pic32mx/4.8.3/../../../../pic32mx/lib/speed/micromips\libpic32.a(vector55.o)
                0x9d0003b9                __vector_dispatch_55
                0x00000001                ASSERT (((_vector_spacing == 0x0) || (SIZEOF (.vector_55) <= (_vector_spacing << 0x3))), function at exception vector 55 too large)

.vector_56      0x9d0003c0        0x8
 *(.vector_56)
 .vector_56     0x9d0003c0        0x8 build/default/debug/main.o
                0x9d0003c1                __vector_dispatch_56
                0x00000001                ASSERT (((_vector_spacing == 0x0) || (SIZEOF (.vector_56) <= (_vector_spacing << 0x3))), function at exception vector 56 too large)

.vector_57      0x9d0003c8        0x8
 *(.vector_57)
 .vector_57     0x9d0003c8        0x8 build/default/debug/main.o
                0x9d0003c9                __vector_dispatch_57
                0x00000001                ASSERT (((_vector_spacing == 0x0) || (SIZEOF (.vector_57) <= (_vector_spacing << 0x3))), function at exception vector 57 too large)

.vector_58      0x9d0003d0        0x8
 *(.vector_58)
 .vector_58     0x9d0003d0        0x8 build/default/debug/main.o
                0x9d0003d1                __vector_dispatch_58
                0x00000001                ASSERT (((_vector_spacing == 0x0) || (SIZEOF (.vector_58) <= (_vector_spacing << 0x3))), function at exception vector 58 too large)

.vector_59      0x9d0003d8        0x8
 *(.vector_59)
 .vector_59     0x9d0003d8        0x8 d:/program files (x86)/microchip/xc32/v2.05/bin/bin/../../lib/gcc/pic32mx/4.8.3/../../../../pic32mx/lib/speed/micromips\libpic32.a(vector59.o)
                0x9d0003d9                __vector_dispatch_59
                0x00000001                ASSERT (((_vector_spacing == 0x0) || (SIZEOF (.vector_59) <= (_vector_spacing << 0x3))), function at exception vector 59 too large)

.vector_60      0x9d0003e0        0x8
 *(.vector_60)
 .vector_60     0x9d0003e0        0x8 d:/program files (x86)/microchip/xc32/v2.05/bin/bin/../../lib/gcc/pic32mx/4.8.3/../../../../pic32mx/lib/speed/micromips\libpic32.a(vector60.o)
                0x9d0003e1                __vector_dispatch_60
                0x00000001                ASSERT (((_vector_spacing == 0x0) || (SIZEOF (.vector_60) <= (_vector_spacing << 0x3))), function at exception vector 60 too large)

.vector_61      0x9d0003e8        0x8
 *(.vector_61)
 .vector_61     0x9d0003e8        0x8 d:/program files (x86)/microchip/xc32/v2.05/bin/bin/../../lib/gcc/pic32mx/4.8.3/../../../../pic32mx/lib/speed/micromips\libpic32.a(vector61.o)
                0x9d0003e9                __vector_dispatch_61
                0x00000001                ASSERT (((_vector_spacing == 0x0) || (SIZEOF (.vector_61) <= (_vector_spacing << 0x3))), function at exception vector 61 too large)

.vector_62      0x9d0003f0        0x8
 *(.vector_62)
 .vector_62     0x9d0003f0        0x8 d:/program files (x86)/microchip/xc32/v2.05/bin/bin/../../lib/gcc/pic32mx/4.8.3/../../../../pic32mx/lib/speed/micromips\libpic32.a(vector62.o)
                0x9d0003f1                __vector_dispatch_62
                0x00000001                ASSERT (((_vector_spacing == 0x0) || (SIZEOF (.vector_62) <= (_vector_spacing << 0x3))), function at exception vector 62 too large)

.vector_63      0x9d0003f8        0x8
 *(.vector_63)
 .vector_63     0x9d0003f8        0x8 d:/program files (x86)/microchip/xc32/v2.05/bin/bin/../../lib/gcc/pic32mx/4.8.3/../../../../pic32mx/lib/speed/micromips\libpic32.a(vector63.o)
                0x9d0003f9                __vector_dispatch_63
                0x00000001                ASSERT (((_vector_spacing == 0x0) || (SIZEOF (.vector_63) <= (_vector_spacing << 0x3))), function at exception vector 63 too large)

.vector_64      0x9d000400        0x8
 *(.vector_64)
 .vector_64     0x9d000400        0x8 d:/program files (x86)/microchip/xc32/v2.05/bin/bin/../../lib/gcc/pic32mx/4.8.3/../../../../pic32mx/lib/speed/micromips\libpic32.a(vector64.o)
                0x9d000401                __vector_dispatch_64
                0x00000001                ASSERT (((_vector_spacing == 0x0) || (SIZEOF (.vector_64) <= (_vector_spacing << 0x3))), function at exception vector 64 too large)

.vector_65      0x9d000408        0x8
 *(.vector_65)
 .vector_65     0x9d000408        0x8 d:/program files (x86)/microchip/xc32/v2.05/bin/bin/../../lib/gcc/pic32mx/4.8.3/../../../../pic32mx/lib/speed/micromips\libpic32.a(vector65.o)
                0x9d000409                __vector_dispatch_65
                0x00000001                ASSERT (((_vector_spacing == 0x0) || (SIZEOF (.vector_65) <= (_vector_spacing << 0x3))), function at exception vector 65 too large)

.vector_66      0x9d000410        0x8
 *(.vector_66)
 .vector_66     0x9d000410        0x8 d:/program files (x86)/microchip/xc32/v2.05/bin/bin/../../lib/gcc/pic32mx/4.8.3/../../../../pic32mx/lib/speed/micromips\libpic32.a(vector66.o)
                0x9d000411                __vector_dispatch_66
                0x00000001                ASSERT (((_vector_spacing == 0x0) || (SIZEOF (.vector_66) <= (_vector_spacing << 0x3))), function at exception vector 66 too large)

.vector_67      0x9d000418        0x8
 *(.vector_67)
 .vector_67     0x9d000418        0x8 d:/program files (x86)/microchip/xc32/v2.05/bin/bin/../../lib/gcc/pic32mx/4.8.3/../../../../pic32mx/lib/speed/micromips\libpic32.a(vector67.o)
                0x9d000419                __vector_dispatch_67
                0x00000001                ASSERT (((_vector_spacing == 0x0) || (SIZEOF (.vector_67) <= (_vector_spacing << 0x3))), function at exception vector 67 too large)

.vector_68      0x9d000420        0x8
 *(.vector_68)
 .vector_68     0x9d000420        0x8 d:/program files (x86)/microchip/xc32/v2.05/bin/bin/../../lib/gcc/pic32mx/4.8.3/../../../../pic32mx/lib/speed/micromips\libpic32.a(vector68.o)
                0x9d000421                __vector_dispatch_68
                0x00000001                ASSERT (((_vector_spacing == 0x0) || (SIZEOF (.vector_68) <= (_vector_spacing << 0x3))), function at exception vector 68 too large)

.vector_69      0x9d000428        0x8
 *(.vector_69)
 .vector_69     0x9d000428        0x8 d:/program files (x86)/microchip/xc32/v2.05/bin/bin/../../lib/gcc/pic32mx/4.8.3/../../../../pic32mx/lib/speed/micromips\libpic32.a(vector69.o)
                0x9d000429                __vector_dispatch_69
                0x00000001                ASSERT (((_vector_spacing == 0x0) || (SIZEOF (.vector_69) <= (_vector_spacing << 0x3))), function at exception vector 69 too large)

.vector_70      0x9d000430        0x8
 *(.vector_70)
 .vector_70     0x9d000430        0x8 d:/program files (x86)/microchip/xc32/v2.05/bin/bin/../../lib/gcc/pic32mx/4.8.3/../../../../pic32mx/lib/speed/micromips\libpic32.a(vector70.o)
                0x9d000431                __vector_dispatch_70
                0x00000001                ASSERT (((_vector_spacing == 0x0) || (SIZEOF (.vector_70) <= (_vector_spacing << 0x3))), function at exception vector 70 too large)

.vector_71      0x9d000438        0x8
 *(.vector_71)
 .vector_71     0x9d000438        0x8 d:/program files (x86)/microchip/xc32/v2.05/bin/bin/../../lib/gcc/pic32mx/4.8.3/../../../../pic32mx/lib/speed/micromips\libpic32.a(vector71.o)
                0x9d000439                __vector_dispatch_71
                0x00000001                ASSERT (((_vector_spacing == 0x0) || (SIZEOF (.vector_71) <= (_vector_spacing << 0x3))), function at exception vector 71 too large)

.vector_72      0x9d000440        0x8
 *(.vector_72)
 .vector_72     0x9d000440        0x8 d:/program files (x86)/microchip/xc32/v2.05/bin/bin/../../lib/gcc/pic32mx/4.8.3/../../../../pic32mx/lib/speed/micromips\libpic32.a(vector72.o)
                0x9d000441                __vector_dispatch_72
                0x00000001                ASSERT (((_vector_spacing == 0x0) || (SIZEOF (.vector_72) <= (_vector_spacing << 0x3))), function at exception vector 72 too large)

.vector_73      0x9d000448        0x8
 *(.vector_73)
 .vector_73     0x9d000448        0x8 d:/program files (x86)/microchip/xc32/v2.05/bin/bin/../../lib/gcc/pic32mx/4.8.3/../../../../pic32mx/lib/speed/micromips\libpic32.a(vector73.o)
                0x9d000449                __vector_dispatch_73
                0x00000001                ASSERT (((_vector_spacing == 0x0) || (SIZEOF (.vector_73) <= (_vector_spacing << 0x3))), function at exception vector 73 too large)

.vector_74      0x9d000450        0x8
 *(.vector_74)
 .vector_74     0x9d000450        0x8 d:/program files (x86)/microchip/xc32/v2.05/bin/bin/../../lib/gcc/pic32mx/4.8.3/../../../../pic32mx/lib/speed/micromips\libpic32.a(vector74.o)
                0x9d000451                __vector_dispatch_74
                0x00000001                ASSERT (((_vector_spacing == 0x0) || (SIZEOF (.vector_74) <= (_vector_spacing << 0x3))), function at exception vector 74 too large)

.vector_75      0x9d000458        0x8
 *(.vector_75)
 .vector_75     0x9d000458        0x8 d:/program files (x86)/microchip/xc32/v2.05/bin/bin/../../lib/gcc/pic32mx/4.8.3/../../../../pic32mx/lib/speed/micromips\libpic32.a(vector75.o)
                0x9d000459                __vector_dispatch_75
                0x00000001                ASSERT (((_vector_spacing == 0x0) || (SIZEOF (.vector_75) <= (_vector_spacing << 0x3))), function at exception vector 75 too large)

.vector_76      0x9d000460        0x8
 *(.vector_76)
 .vector_76     0x9d000460        0x8 d:/program files (x86)/microchip/xc32/v2.05/bin/bin/../../lib/gcc/pic32mx/4.8.3/../../../../pic32mx/lib/speed/micromips\libpic32.a(vector76.o)
                0x9d000461                __vector_dispatch_76
                0x00000001                ASSERT (((_vector_spacing == 0x0) || (SIZEOF (.vector_76) <= (_vector_spacing << 0x3))), function at exception vector 76 too large)

.vector_77      0x9d000468        0x8
 *(.vector_77)
 .vector_77     0x9d000468        0x8 d:/program files (x86)/microchip/xc32/v2.05/bin/bin/../../lib/gcc/pic32mx/4.8.3/../../../../pic32mx/lib/speed/micromips\libpic32.a(vector77.o)
                0x9d000469                __vector_dispatch_77
                0x00000001                ASSERT (((_vector_spacing == 0x0) || (SIZEOF (.vector_77) <= (_vector_spacing << 0x3))), function at exception vector 77 too large)

.vector_78      0x9d000470        0x8
 *(.vector_78)
 .vector_78     0x9d000470        0x8 d:/program files (x86)/microchip/xc32/v2.05/bin/bin/../../lib/gcc/pic32mx/4.8.3/../../../../pic32mx/lib/speed/micromips\libpic32.a(vector78.o)
                0x9d000471                __vector_dispatch_78
                0x00000001                ASSERT (((_vector_spacing == 0x0) || (SIZEOF (.vector_78) <= (_vector_spacing << 0x3))), function at exception vector 78 too large)

.vector_79      0x9d000478        0x8
 *(.vector_79)
 .vector_79     0x9d000478        0x8 d:/program files (x86)/microchip/xc32/v2.05/bin/bin/../../lib/gcc/pic32mx/4.8.3/../../../../pic32mx/lib/speed/micromips\libpic32.a(vector79.o)
                0x9d000479                __vector_dispatch_79
                0x00000001                ASSERT (((_vector_spacing == 0x0) || (SIZEOF (.vector_79) <= (_vector_spacing << 0x3))), function at exception vector 79 too large)

.vector_80      0x9d000480        0x8
 *(.vector_80)
 .vector_80     0x9d000480        0x8 d:/program files (x86)/microchip/xc32/v2.05/bin/bin/../../lib/gcc/pic32mx/4.8.3/../../../../pic32mx/lib/speed/micromips\libpic32.a(vector80.o)
                0x9d000481                __vector_dispatch_80
                0x00000001                ASSERT (((_vector_spacing == 0x0) || (SIZEOF (.vector_80) <= (_vector_spacing << 0x3))), function at exception vector 80 too large)

.vector_81      0x9d000488        0x8
 *(.vector_81)
 .vector_81     0x9d000488        0x8 d:/program files (x86)/microchip/xc32/v2.05/bin/bin/../../lib/gcc/pic32mx/4.8.3/../../../../pic32mx/lib/speed/micromips\libpic32.a(vector81.o)
                0x9d000489                __vector_dispatch_81
                0x00000001                ASSERT (((_vector_spacing == 0x0) || (SIZEOF (.vector_81) <= (_vector_spacing << 0x3))), function at exception vector 81 too large)

.vector_82      0x9d000490        0x8
 *(.vector_82)
 .vector_82     0x9d000490        0x8 d:/program files (x86)/microchip/xc32/v2.05/bin/bin/../../lib/gcc/pic32mx/4.8.3/../../../../pic32mx/lib/speed/micromips\libpic32.a(vector82.o)
                0x9d000491                __vector_dispatch_82
                0x00000001                ASSERT (((_vector_spacing == 0x0) || (SIZEOF (.vector_82) <= (_vector_spacing << 0x3))), function at exception vector 82 too large)

.vector_83      0x9d000498        0x8
 *(.vector_83)
 .vector_83     0x9d000498        0x8 d:/program files (x86)/microchip/xc32/v2.05/bin/bin/../../lib/gcc/pic32mx/4.8.3/../../../../pic32mx/lib/speed/micromips\libpic32.a(vector83.o)
                0x9d000499                __vector_dispatch_83
                0x00000001                ASSERT (((_vector_spacing == 0x0) || (SIZEOF (.vector_83) <= (_vector_spacing << 0x3))), function at exception vector 83 too large)

.vector_84      0x9d0004a0        0x8
 *(.vector_84)
 .vector_84     0x9d0004a0        0x8 d:/program files (x86)/microchip/xc32/v2.05/bin/bin/../../lib/gcc/pic32mx/4.8.3/../../../../pic32mx/lib/speed/micromips\libpic32.a(vector84.o)
                0x9d0004a1                __vector_dispatch_84
                0x00000001                ASSERT (((_vector_spacing == 0x0) || (SIZEOF (.vector_84) <= (_vector_spacing << 0x3))), function at exception vector 84 too large)

.vector_85      0x9d0004a8        0x8
 *(.vector_85)
 .vector_85     0x9d0004a8        0x8 d:/program files (x86)/microchip/xc32/v2.05/bin/bin/../../lib/gcc/pic32mx/4.8.3/../../../../pic32mx/lib/speed/micromips\libpic32.a(vector85.o)
                0x9d0004a9                __vector_dispatch_85
                0x00000001                ASSERT (((_vector_spacing == 0x0) || (SIZEOF (.vector_85) <= (_vector_spacing << 0x3))), function at exception vector 85 too large)

.vector_86      0x9d0004b0        0x8
 *(.vector_86)
 .vector_86     0x9d0004b0        0x8 d:/program files (x86)/microchip/xc32/v2.05/bin/bin/../../lib/gcc/pic32mx/4.8.3/../../../../pic32mx/lib/speed/micromips\libpic32.a(vector86.o)
                0x9d0004b1                __vector_dispatch_86
                0x00000001                ASSERT (((_vector_spacing == 0x0) || (SIZEOF (.vector_86) <= (_vector_spacing << 0x3))), function at exception vector 86 too large)

.vector_87      0x9d0004b8        0x8
 *(.vector_87)
 .vector_87     0x9d0004b8        0x8 d:/program files (x86)/microchip/xc32/v2.05/bin/bin/../../lib/gcc/pic32mx/4.8.3/../../../../pic32mx/lib/speed/micromips\libpic32.a(vector87.o)
                0x9d0004b9                __vector_dispatch_87
                0x00000001                ASSERT (((_vector_spacing == 0x0) || (SIZEOF (.vector_87) <= (_vector_spacing << 0x3))), function at exception vector 87 too large)

.vector_88      0x9d0004c0        0x8
 *(.vector_88)
 .vector_88     0x9d0004c0        0x8 d:/program files (x86)/microchip/xc32/v2.05/bin/bin/../../lib/gcc/pic32mx/4.8.3/../../../../pic32mx/lib/speed/micromips\libpic32.a(vector88.o)
                0x9d0004c1                __vector_dispatch_88
                0x00000001                ASSERT (((_vector_spacing == 0x0) || (SIZEOF (.vector_88) <= (_vector_spacing << 0x3))), function at exception vector 88 too large)

.vector_89      0x9d0004c8        0x8
 *(.vector_89)
 .vector_89     0x9d0004c8        0x8 d:/program files (x86)/microchip/xc32/v2.05/bin/bin/../../lib/gcc/pic32mx/4.8.3/../../../../pic32mx/lib/speed/micromips\libpic32.a(vector89.o)
                0x9d0004c9                __vector_dispatch_89
                0x00000001                ASSERT (((_vector_spacing == 0x0) || (SIZEOF (.vector_89) <= (_vector_spacing << 0x3))), function at exception vector 89 too large)

.vector_90      0x9d0004d0        0x8
 *(.vector_90)
 .vector_90     0x9d0004d0        0x8 d:/program files (x86)/microchip/xc32/v2.05/bin/bin/../../lib/gcc/pic32mx/4.8.3/../../../../pic32mx/lib/speed/micromips\libpic32.a(vector90.o)
                0x9d0004d1                __vector_dispatch_90
                0x00000001                ASSERT (((_vector_spacing == 0x0) || (SIZEOF (.vector_90) <= (_vector_spacing << 0x3))), function at exception vector 90 too large)

.vector_91      0x9d0004d8        0x8
 *(.vector_91)
 .vector_91     0x9d0004d8        0x8 d:/program files (x86)/microchip/xc32/v2.05/bin/bin/../../lib/gcc/pic32mx/4.8.3/../../../../pic32mx/lib/speed/micromips\libpic32.a(vector91.o)
                0x9d0004d9                __vector_dispatch_91
                0x00000001                ASSERT (((_vector_spacing == 0x0) || (SIZEOF (.vector_91) <= (_vector_spacing << 0x3))), function at exception vector 91 too large)

.vector_92      0x9d0004e0        0x8
 *(.vector_92)
 .vector_92     0x9d0004e0        0x8 d:/program files (x86)/microchip/xc32/v2.05/bin/bin/../../lib/gcc/pic32mx/4.8.3/../../../../pic32mx/lib/speed/micromips\libpic32.a(vector92.o)
                0x9d0004e1                __vector_dispatch_92
                0x00000001                ASSERT (((_vector_spacing == 0x0) || (SIZEOF (.vector_92) <= (_vector_spacing << 0x3))), function at exception vector 92 too large)

.vector_93      0x9d0004e8        0x8
 *(.vector_93)
 .vector_93     0x9d0004e8        0x8 d:/program files (x86)/microchip/xc32/v2.05/bin/bin/../../lib/gcc/pic32mx/4.8.3/../../../../pic32mx/lib/speed/micromips\libpic32.a(vector93.o)
                0x9d0004e9                __vector_dispatch_93
                0x00000001                ASSERT (((_vector_spacing == 0x0) || (SIZEOF (.vector_93) <= (_vector_spacing << 0x3))), function at exception vector 93 too large)

.vector_94      0x9d0004f0        0x8
 *(.vector_94)
 .vector_94     0x9d0004f0        0x8 d:/program files (x86)/microchip/xc32/v2.05/bin/bin/../../lib/gcc/pic32mx/4.8.3/../../../../pic32mx/lib/speed/micromips\libpic32.a(vector94.o)
                0x9d0004f1                __vector_dispatch_94
                0x00000001                ASSERT (((_vector_spacing == 0x0) || (SIZEOF (.vector_94) <= (_vector_spacing << 0x3))), function at exception vector 94 too large)

.vector_95      0x9d0004f8        0x8
 *(.vector_95)
 .vector_95     0x9d0004f8        0x8 d:/program files (x86)/microchip/xc32/v2.05/bin/bin/../../lib/gcc/pic32mx/4.8.3/../../../../pic32mx/lib/speed/micromips\libpic32.a(vector95.o)
                0x9d0004f9                __vector_dispatch_95
                0x00000001                ASSERT (((_vector_spacing == 0x0) || (SIZEOF (.vector_95) <= (_vector_spacing << 0x3))), function at exception vector 95 too large)

.vector_96      0x9d000500        0x8
 *(.vector_96)
 .vector_96     0x9d000500        0x8 d:/program files (x86)/microchip/xc32/v2.05/bin/bin/../../lib/gcc/pic32mx/4.8.3/../../../../pic32mx/lib/speed/micromips\libpic32.a(vector96.o)
                0x9d000501                __vector_dispatch_96
                0x00000001                ASSERT (((_vector_spacing == 0x0) || (SIZEOF (.vector_96) <= (_vector_spacing << 0x3))), function at exception vector 96 too large)

.vector_97      0x9d000508        0x8
 *(.vector_97)
 .vector_97     0x9d000508        0x8 d:/program files (x86)/microchip/xc32/v2.05/bin/bin/../../lib/gcc/pic32mx/4.8.3/../../../../pic32mx/lib/speed/micromips\libpic32.a(vector97.o)
                0x9d000509                __vector_dispatch_97
                0x00000001                ASSERT (((_vector_spacing == 0x0) || (SIZEOF (.vector_97) <= (_vector_spacing << 0x3))), function at exception vector 97 too large)

.vector_98      0x9d000510        0x8
 *(.vector_98)
 .vector_98     0x9d000510        0x8 d:/program files (x86)/microchip/xc32/v2.05/bin/bin/../../lib/gcc/pic32mx/4.8.3/../../../../pic32mx/lib/speed/micromips\libpic32.a(vector98.o)
                0x9d000511                __vector_dispatch_98
                0x00000001                ASSERT (((_vector_spacing == 0x0) || (SIZEOF (.vector_98) <= (_vector_spacing << 0x3))), function at exception vector 98 too large)

.vector_99      0x9d000518        0x8
 *(.vector_99)
 .vector_99     0x9d000518        0x8 d:/program files (x86)/microchip/xc32/v2.05/bin/bin/../../lib/gcc/pic32mx/4.8.3/../../../../pic32mx/lib/speed/micromips\libpic32.a(vector99.o)
                0x9d000519                __vector_dispatch_99
                0x00000001                ASSERT (((_vector_spacing == 0x0) || (SIZEOF (.vector_99) <= (_vector_spacing << 0x3))), function at exception vector 99 too large)

.vector_100     0x9d000520        0x8
 *(.vector_100)
 .vector_100    0x9d000520        0x8 d:/program files (x86)/microchip/xc32/v2.05/bin/bin/../../lib/gcc/pic32mx/4.8.3/../../../../pic32mx/lib/speed/micromips\libpic32.a(vector100.o)
                0x9d000521                __vector_dispatch_100
                0x00000001                ASSERT (((_vector_spacing == 0x0) || (SIZEOF (.vector_100) <= (_vector_spacing << 0x3))), function at exception vector 100 too large)

.vector_101     0x9d000528        0x8
 *(.vector_101)
 .vector_101    0x9d000528        0x8 d:/program files (x86)/microchip/xc32/v2.05/bin/bin/../../lib/gcc/pic32mx/4.8.3/../../../../pic32mx/lib/speed/micromips\libpic32.a(vector101.o)
                0x9d000529                __vector_dispatch_101
                0x00000001                ASSERT (((_vector_spacing == 0x0) || (SIZEOF (.vector_101) <= (_vector_spacing << 0x3))), function at exception vector 101 too large)

.startup
 *(.startup)

.text           0x9d000530        0x0
 *(.stub .gnu.linkonce.t.*)
 *(.text.*personality*)
 *(.mips16.fn.*)
 *(.mips16.call.*)
 *(.gnu.warning)
                0x9d000530                . = ALIGN (0x4)

.init           0x9d000530        0x0
 *crti.o(.init)
 *crtbegin.o(.init)
 *(EXCLUDE_FILE(*crtn.o *crtend?.o *crtend.o) .init)
 *crtend.o(.init)
 *crtn.o(.init)
                0x9d000530                . = ALIGN (0x4)

.fini           0x9d000530        0x0
 *(.fini)
                0x9d000530                . = ALIGN (0x4)

.preinit_array  0x9d000530        0x0
                0x9d000530                PROVIDE (__preinit_array_start, .)
 *(.preinit_array)
                0x9d000530                PROVIDE (__preinit_array_end, .)
                0x9d000530                . = ALIGN (0x4)

.init_array     0x9d000530        0x0
                0x9d000530                PROVIDE (__init_array_start, .)
 *(SORT(.init_array.*))
 *(.init_array)
                0x9d000530                PROVIDE (__init_array_end, .)
                0x9d000530                . = ALIGN (0x4)

.fini_array     0x9d000530        0x0
                0x9d000530                PROVIDE (__fini_array_start, .)
 *(SORT(.fini_array.*))
 *(.fini_array)
                0x9d000530                PROVIDE (__fini_array_end, .)
                0x9d000530                . = ALIGN (0x4)

.ctors          0x9d000530        0x0
 *crtbegin.o(.ctors)
 *crtbegin?.o(.ctors)
 *(EXCLUDE_FILE(*crtend?.o *crtend.o) .ctors)
 *(SORT(.ctors.*))
 *(.ctors)
                0x9d000530                . = ALIGN (0x4)

.dtors          0x9d000530        0x0
 *crtbegin.o(.dtors)
 *crtbegin?.o(.dtors)
 *(EXCLUDE_FILE(*crtend?.o *crtend.o) .dtors)
 *(SORT(.dtors.*))
 *(.dtors)
                0x9d000530                . = ALIGN (0x4)

.rodata         0x9d000530        0x0
 *(.gnu.linkonce.r.*)
 *(.rodata1)
                0x9d000530                . = ALIGN (0x4)

.sdata2         0x9fc00490        0x0
 *(.sdata2 .sdata2.* .gnu.linkonce.s2.*)
                0x9fc00490                . = ALIGN (0x4)

.sbss2          0x9fc00490        0x0
 *(.sbss2 .sbss2.* .gnu.linkonce.sb2.*)
                0x9fc00490                . = ALIGN (0x4)

.eh_frame_hdr
 *(.eh_frame_hdr)
                0x9fc00490                . = ALIGN (0x4)

.eh_frame
 *(.eh_frame)
                0x9fc00490                . = ALIGN (0x4)

.gcc_except_table
 *(.gcc_except_table .gcc_except_table.*)
                0x9fc00490                . = ALIGN (0x4)

.dbg_data       0x80000200        0x0
                0x80000200                . = (. + DEFINED (_DEBUGGER)?0x200:0x0)

.jcr            0x80000200        0x0
 *(.jcr)
                0x80000200                . = ALIGN (0x4)

.eh_frame
 *(.eh_frame)
                0x80000200                . = ALIGN (0x4)

.gcc_except_table
 *(.gcc_except_table .gcc_except_table.*)
                0x80000200                . = ALIGN (0x4)

.persist        0x80000200        0x0
                0x80000200                _persist_begin = .
 *(.persist .persist.*)
 *(.pbss .pbss.*)
                0x80000200                . = ALIGN (0x4)
                0x80000200                _persist_end = .

.data           0x80000200        0x0
 *(.gnu.linkonce.d.*)
 *(.data1)
                0x80000200                . = ALIGN (0x4)
                0x80000200                . = .
                0x800081f0                _gp = (ALIGN (0x10) + 0x7ff0)

.got            0x80000200        0x0
 *(.got.plt)
 *(.got)
                0x80000200                . = ALIGN (0x4)

.sdata          0x80000200       0x9c
                0x80000200                _sdata_begin = .
 *(.sdata .sdata.* .gnu.linkonce.s.*)
 .sdata         0x80000200        0x4 build/default/debug/clock_cfgBits_mm.o
                0x80000200                checkStackSpaceValue
 .sdata         0x80000204        0x4 build/default/debug/clock_cfgBits_mz.o
 .sdata         0x80000208       0x10 build/default/debug/netcom2.o
                0x8000020c                tx_pin
 .sdata         0x80000218        0x4 build/default/debug/main.o
 .sdata         0x8000021c        0x4 build/default/debug/globals.o
 .sdata         0x80000220       0x2c build/default/debug/_display/ili9341/disp9341.o
                0x80000224                csPin
                0x8000022c                resetPin
                0x80000234                dcPin
                0x8000023c                blPin
 .sdata         0x8000024c        0x4 build/default/debug/_display/ssd1306/disp1306.o
 .sdata         0x80000250        0x4 build/default/debug/_display/graphics.o
 .sdata         0x80000254        0x4 build/default/debug/spi.o
 .sdata         0x80000258        0x4 build/default/debug/portWriter.o
 .sdata         0x8000025c        0x4 build/default/debug/_touchpad/touchXpt2046.o
 .sdata         0x80000260        0x4 build/default/debug/periph.o
 .sdata         0x80000264       0x24 build/default/debug/app1.o
                0x80000268                delay
                0x8000026c                testVar
                0x8000027c                getPipe0data
                0x80000280                getPipe1data
 .sdata         0x80000288        0x8 build/default/debug/app2.o
 .sdata         0x80000290        0x8 build/default/debug/app3.o
 .sdata         0x80000298        0x4 build/default/debug/user_apps.o
                0x8000029c                . = ALIGN (0x4)
                0x8000029c                _sdata_end = .

.lit8
 *(.lit8)

.lit4
 *(.lit4)
                0x8000029c                . = ALIGN (0x4)
                0x8000029c                _data_end = .
                0x8000029c                _bss_begin = .

.sbss           0x8000029c      0x278
                0x8000029c                _sbss_begin = .
 *(.dynsbss)
 *(.sbss .sbss.* .gnu.linkonce.sb.*)
 .sbss          0x8000029c       0x20 build/default/debug/clock_cfgBits_mm.o
                0x8000029c                netcom_devId
                0x800002a0                netcomChkError
                0x800002a4                netcomSendDataError
                0x800002a8                netcomBusError
                0x800002ac                netcomTxBytes
                0x800002b0                netcomRxBytes
                0x800002b4                netcomTxCTRL
                0x800002b8                netcomRxCTRL
 .sbss          0x800002bc       0x20 build/default/debug/clock_cfgBits_mz.o
 .sbss          0x800002dc       0x3c build/default/debug/netcom2.o
 .sbss          0x80000318       0x20 build/default/debug/main.o
 .sbss          0x80000338       0x20 build/default/debug/globals.o
 .sbss          0x80000358       0x34 build/default/debug/_display/ili9341/disp9341.o
 .sbss          0x8000038c       0x20 build/default/debug/_display/ssd1306/disp1306.o
 .sbss          0x800003ac       0x24 build/default/debug/_display/graphics.o
 .sbss          0x800003d0       0x20 build/default/debug/spi.o
 .sbss          0x800003f0       0x20 build/default/debug/portWriter.o
 .sbss          0x80000410       0x20 build/default/debug/_touchpad/touchXpt2046.o
 .sbss          0x80000430       0x20 build/default/debug/periph.o
 .sbss          0x80000450       0x28 build/default/debug/app1.o
 .sbss          0x80000478       0x24 build/default/debug/app2.o
 .sbss          0x8000049c       0x20 build/default/debug/app3.o
 .sbss          0x800004bc       0x20 build/default/debug/user_apps.o
 *(.scommon)
 .scommon       0x800004dc       0x2c build/default/debug/clock_cfgBits_mm.o
                0x800004dc                SYSTEM_STATUS
                0x800004e0                defaultAppStartParam
                0x800004e8                LED1
                0x800004f0                LED3
                0x800004f8                LED2
                0x80000500                LED4
 .scommon       0x80000508        0x0 build/default/debug/clock_cfgBits_mz.o
 .scommon       0x80000508        0x8 build/default/debug/netcom2.o
                0x80000508                sendingItem
                0x8000050c                _finish
 .scommon       0x80000510        0x0 build/default/debug/main.o
 .scommon       0x80000510        0x0 build/default/debug/globals.o
 .scommon       0x80000510        0x4 build/default/debug/_display/ili9341/disp9341.o
                0x80000510                defaultFont
 .scommon       0x80000514        0x0 build/default/debug/_display/ssd1306/disp1306.o
 .scommon       0x80000514        0x0 build/default/debug/_display/graphics.o
 .scommon       0x80000514        0x0 build/default/debug/spi.o
 .scommon       0x80000514        0x0 build/default/debug/portWriter.o
 .scommon       0x80000514        0x0 build/default/debug/_touchpad/touchXpt2046.o
 .scommon       0x80000514        0x0 build/default/debug/periph.o
 .scommon       0x80000514        0x0 build/default/debug/app1.o
 .scommon       0x80000514        0x0 build/default/debug/app2.o
 .scommon       0x80000514        0x0 build/default/debug/app3.o
 .scommon       0x80000514        0x0 build/default/debug/user_apps.o
                0x80000514                _sbss_end = .
                0x80000514                . = ALIGN (0x4)

.bss            0x80000514      0x258
 *(.dynbss)
 *(COMMON)
 COMMON         0x80000514       0x80 build/default/debug/netcom2.o
                0x80000514                master2Item
                0x80000534                master8Item
                0x80000554                master1Item
                0x80000574                replyItem
 COMMON         0x80000594      0x128 build/default/debug/_display/graphics.o
                0x80000594                graphics
                0x800005d4                font_twcen_22
                0x80000620                sysDisplay
                0x80000670                font_twcen_18
 COMMON         0x800006bc       0xb0 build/default/debug/app1.o
                0x800006bc                dataStruct
                0x800006dc                data1024
                0x800006fc                setPipe1
                0x80000708                setPipe1data
                0x80000728                getPipe1
                0x80000734                getPipe0
                0x80000740                setPipe0data
                0x80000760                setPipe0
                0x8000076c                . = ALIGN ((. != 0x0)?0x4:0x1)
                0x8000076c                . = ALIGN (0x4)
                0x8000076c                _end = .
                0x8000076c                _bss_end = .
                0x00008000                _bmxdudba_address = 0x8000
                0x00008000                _bmxdupba_address = 0x8000

/DISCARD/
 *(.pdr)
 *(.rel.dyn)
 *(.note.GNU-stack)
 *(.note.GNU-stack)
 *(.gnu_debuglink)
 *(.gnu.lto_*)
 *(.discard)

.gptab.sdata
 *(.gptab.data)
 *(.gptab.sdata)

.gptab.sbss
 *(.gptab.bss)
 *(.gptab.sbss)

.mdebug.abi32   0x00000000        0x0
 *(.mdebug.abi32)
 .mdebug.abi32  0x00000000        0x0 d:/program files (x86)/microchip/xc32/v2.05/bin/bin/../../lib/gcc/pic32mx/4.8.3/../../../../pic32mx/lib/speed/micromips\software-debug-break.o
 .mdebug.abi32  0x00000000        0x0 build/default/debug/clock_cfgBits_mm.o
 .mdebug.abi32  0x00000000        0x0 build/default/debug/clock_cfgBits_mz.o
 .mdebug.abi32  0x00000000        0x0 build/default/debug/netcom2.o
 .mdebug.abi32  0x00000000        0x0 build/default/debug/main.o
 .mdebug.abi32  0x00000000        0x0 build/default/debug/globals.o
 .mdebug.abi32  0x00000000        0x0 build/default/debug/_display/ili9341/disp9341.o
 .mdebug.abi32  0x00000000        0x0 build/default/debug/_display/ssd1306/disp1306.o
 .mdebug.abi32  0x00000000        0x0 build/default/debug/_display/graphics.o
 .mdebug.abi32  0x00000000        0x0 build/default/debug/spi.o
 .mdebug.abi32  0x00000000        0x0 build/default/debug/portWriter.o
 .mdebug.abi32  0x00000000        0x0 build/default/debug/_touchpad/touchXpt2046.o
 .mdebug.abi32  0x00000000        0x0 build/default/debug/periph.o
 .mdebug.abi32  0x00000000        0x0 build/default/debug/app1.o
 .mdebug.abi32  0x00000000        0x0 build/default/debug/app2.o
 .mdebug.abi32  0x00000000        0x0 build/default/debug/app3.o
 .mdebug.abi32  0x00000000        0x0 build/default/debug/user_apps.o
 .mdebug.abi32  0x00000000        0x0 d:/program files (x86)/microchip/xc32/v2.05/bin/bin/../../lib/gcc/pic32mx/4.8.3/../../../../pic32mx/lib/speed/micromips\libpic32.a(default-bootstrap-exception-handler.o)
 .mdebug.abi32  0x00000000        0x0 d:/program files (x86)/microchip/xc32/v2.05/bin/bin/../../lib/gcc/pic32mx/4.8.3/../../../../pic32mx/lib/speed/micromips\libpic32.a(default-on-reset.o)
 .mdebug.abi32  0x00000000        0x0 d:/program files (x86)/microchip/xc32/v2.05/bin/bin/../../lib/gcc/pic32mx/4.8.3/../../../../pic32mx/lib/speed/micromips\libpic32.a(default-on-bootstrap.o)
 .mdebug.abi32  0x00000000        0x0 d:/program files (x86)/microchip/xc32/v2.05/bin/bin/../../lib/gcc/pic32mx/4.8.3/../../../../pic32mx/lib/speed/micromips\libpic32.a(defaultinterrupt.o)

.mdebug.abiN32
 *(.mdebug.abiN32)

.mdebug.abi64
 *(.mdebug.abi64)

.mdebug.abiO64
 *(.mdebug.abiO64)

.mdebug.eabi32
 *(.mdebug.eabi32)

.mdebug.eabi64
 *(.mdebug.eabi64)

.gcc_compiled_long32
 *(.gcc_compiled_long32)

.gcc_compiled_long64
 *(.gcc_compiled_long64)

.stab
 *(.stab)

.stabstr
 *(.stabstr)

.stab.excl
 *(.stab.excl)

.stab.exclstr
 *(.stab.exclstr)

.stab.index
 *(.stab.index)

.stab.indexstr
 *(.stab.indexstr)

.comment        0x00000000       0x3c
 *(.comment)
 .comment       0x00000000       0x3c d:/program files (x86)/microchip/xc32/v2.05/bin/bin/../../lib/gcc/pic32mx/4.8.3/../../../../pic32mx/lib/speed/micromips\software-debug-break.o
                                 0x3d (size before relaxing)
 .comment       0x00000000       0x3d build/default/debug/clock_cfgBits_mm.o
 .comment       0x00000000       0x3d build/default/debug/clock_cfgBits_mz.o
 .comment       0x00000000       0x3d build/default/debug/netcom2.o
 .comment       0x00000000       0x3d build/default/debug/main.o
 .comment       0x00000000       0x3d build/default/debug/globals.o
 .comment       0x00000000       0x3d build/default/debug/_display/ili9341/disp9341.o
 .comment       0x00000000       0x3d build/default/debug/_display/ssd1306/disp1306.o
 .comment       0x00000000       0x3d build/default/debug/_display/graphics.o
 .comment       0x00000000       0x3d build/default/debug/spi.o
 .comment       0x00000000       0x3d build/default/debug/portWriter.o
 .comment       0x00000000       0x3d build/default/debug/_touchpad/touchXpt2046.o
 .comment       0x00000000       0x3d build/default/debug/periph.o
 .comment       0x00000000       0x3d build/default/debug/app1.o
 .comment       0x00000000       0x3d build/default/debug/app2.o
 .comment       0x00000000       0x3d build/default/debug/app3.o
 .comment       0x00000000       0x3d build/default/debug/user_apps.o
 .comment       0x00000000       0x3d d:/program files (x86)/microchip/xc32/v2.05/bin/bin/../../lib/gcc/pic32mx/4.8.3/../../../../pic32mx/lib/speed/micromips\libpic32.a(default-bootstrap-exception-handler.o)
 .comment       0x00000000       0x3d d:/program files (x86)/microchip/xc32/v2.05/bin/bin/../../lib/gcc/pic32mx/4.8.3/../../../../pic32mx/lib/speed/micromips\libpic32.a(default-on-reset.o)
 .comment       0x00000000       0x3d d:/program files (x86)/microchip/xc32/v2.05/bin/bin/../../lib/gcc/pic32mx/4.8.3/../../../../pic32mx/lib/speed/micromips\libpic32.a(default-on-bootstrap.o)
 .comment       0x00000000       0x3d d:/program files (x86)/microchip/xc32/v2.05/bin/bin/../../lib/gcc/pic32mx/4.8.3/../../../../pic32mx/lib/speed/micromips\libpic32.a(defaultinterrupt.o)

.debug
 *.elf(.debug)
 *(.debug)

.line
 *.elf(.line)
 *(.line)

.debug_srcinfo
 *.elf(.debug_srcinfo)
 *(.debug_srcinfo)

.debug_sfnames
 *.elf(.debug_sfnames)
 *(.debug_sfnames)

.debug_aranges  0x00000000      0x368
 *.elf(.debug_aranges)
 *(.debug_aranges)
 .debug_aranges
                0x00000000       0x20 d:/program files (x86)/microchip/xc32/v2.05/bin/bin/../../lib/gcc/pic32mx/4.8.3/../../../../pic32mx/lib/speed/micromips\software-debug-break.o
 .debug_aranges
                0x00000020       0x20 build/default/debug/clock_cfgBits_mm.o
 .debug_aranges
                0x00000040       0x18 build/default/debug/clock_cfgBits_mz.o
 .debug_aranges
                0x00000058       0x20 build/default/debug/netcom2.o
 .debug_aranges
                0x00000078       0x20 build/default/debug/main.o
 .debug_aranges
                0x00000098       0x20 build/default/debug/globals.o
 .debug_aranges
                0x000000b8       0x20 build/default/debug/timer1.o
 .debug_aranges
                0x000000d8       0x20 build/default/debug/core_fn.o
 .debug_aranges
                0x000000f8       0x20 build/default/debug/_display/ili9341/disp9341.o
 .debug_aranges
                0x00000118       0x20 build/default/debug/_display/ili9341/disp16_asm.o
 .debug_aranges
                0x00000138       0x18 build/default/debug/_display/ssd1306/disp1306.o
 .debug_aranges
                0x00000150       0x20 build/default/debug/_display/graphics.o
 .debug_aranges
                0x00000170       0x20 build/default/debug/rtc.o
 .debug_aranges
                0x00000190       0x20 build/default/debug/change_notif_mm.o
 .debug_aranges
                0x000001b0       0x20 build/default/debug/spi.o
 .debug_aranges
                0x000001d0       0x20 build/default/debug/portWriter.o
 .debug_aranges
                0x000001f0       0x18 build/default/debug/_touchpad/touchXpt2046.o
 .debug_aranges
                0x00000208       0x20 build/default/debug/periph.o
 .debug_aranges
                0x00000228       0x20 build/default/debug/periph_fn.o
 .debug_aranges
                0x00000248       0x20 build/default/debug/app1.o
 .debug_aranges
                0x00000268       0x20 build/default/debug/app2.o
 .debug_aranges
                0x00000288       0x20 build/default/debug/app3.o
 .debug_aranges
                0x000002a8       0x20 build/default/debug/user_apps.o
 .debug_aranges
                0x000002c8       0x20 d:/program files (x86)/microchip/xc32/v2.05/bin/bin/../../lib/gcc/pic32mx/4.8.3/../../../../pic32mx/lib/speed/micromips\pic32_software_reset-mm.o
 .debug_aranges
                0x000002e8       0x20 d:/program files (x86)/microchip/xc32/v2.05/bin/bin/../../lib/gcc/pic32mx/4.8.3/../../../../pic32mx/lib/speed/micromips\libpic32.a(default-bootstrap-exception-handler.o)
 .debug_aranges
                0x00000308       0x20 d:/program files (x86)/microchip/xc32/v2.05/bin/bin/../../lib/gcc/pic32mx/4.8.3/../../../../pic32mx/lib/speed/micromips\libpic32.a(default-on-reset.o)
 .debug_aranges
                0x00000328       0x20 d:/program files (x86)/microchip/xc32/v2.05/bin/bin/../../lib/gcc/pic32mx/4.8.3/../../../../pic32mx/lib/speed/micromips\libpic32.a(default-on-bootstrap.o)
 .debug_aranges
                0x00000348       0x20 d:/program files (x86)/microchip/xc32/v2.05/bin/bin/../../lib/gcc/pic32mx/4.8.3/../../../../pic32mx/lib/speed/micromips\libpic32.a(defaultinterrupt.o)

.debug_pubnames
 *.elf(.debug_pubnames)
 *(.debug_pubnames)

.debug_info     0x00000000    0x1742c
 *.elf(.debug_info .gnu.linkonce.wi.*)
 *(.debug_info .gnu.linkonce.wi.*)
 .debug_info    0x00000000       0xe2 d:/program files (x86)/microchip/xc32/v2.05/bin/bin/../../lib/gcc/pic32mx/4.8.3/../../../../pic32mx/lib/speed/micromips\software-debug-break.o
 .debug_info    0x000000e2      0xf2d build/default/debug/clock_cfgBits_mm.o
 .debug_info    0x0000100f      0xce8 build/default/debug/clock_cfgBits_mz.o
 .debug_info    0x00001cf7     0x2973 build/default/debug/netcom2.o
 .debug_info    0x0000466a     0x1694 build/default/debug/main.o
 .debug_info    0x00005cfe     0x1044 build/default/debug/globals.o
 .debug_info    0x00006d42       0x41 build/default/debug/timer1.o
 .debug_info    0x00006d83       0x42 build/default/debug/core_fn.o
 .debug_info    0x00006dc5     0x2d40 build/default/debug/_display/ili9341/disp9341.o
 .debug_info    0x00009b05       0x56 build/default/debug/_display/ili9341/disp16_asm.o
 .debug_info    0x00009b5b      0xcf1 build/default/debug/_display/ssd1306/disp1306.o
 .debug_info    0x0000a84c     0x1b47 build/default/debug/_display/graphics.o
 .debug_info    0x0000c393       0x3e build/default/debug/rtc.o
 .debug_info    0x0000c3d1       0x4a build/default/debug/change_notif_mm.o
 .debug_info    0x0000c41b     0x1eda build/default/debug/spi.o
 .debug_info    0x0000e2f5     0x1314 build/default/debug/portWriter.o
 .debug_info    0x0000f609      0xcee build/default/debug/_touchpad/touchXpt2046.o
 .debug_info    0x000102f7      0xfa4 build/default/debug/periph.o
 .debug_info    0x0001129b       0x44 build/default/debug/periph_fn.o
 .debug_info    0x000112df     0x26c4 build/default/debug/app1.o
 .debug_info    0x000139a3      0xf6a build/default/debug/app2.o
 .debug_info    0x0001490d      0xf7e build/default/debug/app3.o
 .debug_info    0x0001588b     0x171c build/default/debug/user_apps.o
 .debug_info    0x00016fa7      0x10c d:/program files (x86)/microchip/xc32/v2.05/bin/bin/../../lib/gcc/pic32mx/4.8.3/../../../../pic32mx/lib/speed/micromips\pic32_software_reset-mm.o
 .debug_info    0x000170b3       0xf3 d:/program files (x86)/microchip/xc32/v2.05/bin/bin/../../lib/gcc/pic32mx/4.8.3/../../../../pic32mx/lib/speed/micromips\libpic32.a(default-bootstrap-exception-handler.o)
 .debug_info    0x000171a6       0xcc d:/program files (x86)/microchip/xc32/v2.05/bin/bin/../../lib/gcc/pic32mx/4.8.3/../../../../pic32mx/lib/speed/micromips\libpic32.a(default-on-reset.o)
 .debug_info    0x00017272       0xd4 d:/program files (x86)/microchip/xc32/v2.05/bin/bin/../../lib/gcc/pic32mx/4.8.3/../../../../pic32mx/lib/speed/micromips\libpic32.a(default-on-bootstrap.o)
 .debug_info    0x00017346       0xe6 d:/program files (x86)/microchip/xc32/v2.05/bin/bin/../../lib/gcc/pic32mx/4.8.3/../../../../pic32mx/lib/speed/micromips\libpic32.a(defaultinterrupt.o)

.debug_abbrev   0x00000000     0x2293
 *.elf(.debug_abbrev)
 *(.debug_abbrev)
 .debug_abbrev  0x00000000       0x28 d:/program files (x86)/microchip/xc32/v2.05/bin/bin/../../lib/gcc/pic32mx/4.8.3/../../../../pic32mx/lib/speed/micromips\software-debug-break.o
 .debug_abbrev  0x00000028      0x176 build/default/debug/clock_cfgBits_mm.o
 .debug_abbrev  0x0000019e       0xe5 build/default/debug/clock_cfgBits_mz.o
 .debug_abbrev  0x00000283      0x311 build/default/debug/netcom2.o
 .debug_abbrev  0x00000594      0x289 build/default/debug/main.o
 .debug_abbrev  0x0000081d      0x1b1 build/default/debug/globals.o
 .debug_abbrev  0x000009ce       0x14 build/default/debug/timer1.o
 .debug_abbrev  0x000009e2       0x14 build/default/debug/core_fn.o
 .debug_abbrev  0x000009f6      0x3b8 build/default/debug/_display/ili9341/disp9341.o
 .debug_abbrev  0x00000dae       0x14 build/default/debug/_display/ili9341/disp16_asm.o
 .debug_abbrev  0x00000dc2       0xe5 build/default/debug/_display/ssd1306/disp1306.o
 .debug_abbrev  0x00000ea7      0x262 build/default/debug/_display/graphics.o
 .debug_abbrev  0x00001109       0x14 build/default/debug/rtc.o
 .debug_abbrev  0x0000111d       0x14 build/default/debug/change_notif_mm.o
 .debug_abbrev  0x00001131      0x2bf build/default/debug/spi.o
 .debug_abbrev  0x000013f0      0x1fc build/default/debug/portWriter.o
 .debug_abbrev  0x000015ec       0xe5 build/default/debug/_touchpad/touchXpt2046.o
 .debug_abbrev  0x000016d1      0x1b0 build/default/debug/periph.o
 .debug_abbrev  0x00001881       0x14 build/default/debug/periph_fn.o
 .debug_abbrev  0x00001895      0x2fd build/default/debug/app1.o
 .debug_abbrev  0x00001b92      0x1d9 build/default/debug/app2.o
 .debug_abbrev  0x00001d6b      0x229 build/default/debug/app3.o
 .debug_abbrev  0x00001f94      0x24b build/default/debug/user_apps.o
 .debug_abbrev  0x000021df       0x14 d:/program files (x86)/microchip/xc32/v2.05/bin/bin/../../lib/gcc/pic32mx/4.8.3/../../../../pic32mx/lib/speed/micromips\pic32_software_reset-mm.o
 .debug_abbrev  0x000021f3       0x28 d:/program files (x86)/microchip/xc32/v2.05/bin/bin/../../lib/gcc/pic32mx/4.8.3/../../../../pic32mx/lib/speed/micromips\libpic32.a(default-bootstrap-exception-handler.o)
 .debug_abbrev  0x0000221b       0x28 d:/program files (x86)/microchip/xc32/v2.05/bin/bin/../../lib/gcc/pic32mx/4.8.3/../../../../pic32mx/lib/speed/micromips\libpic32.a(default-on-reset.o)
 .debug_abbrev  0x00002243       0x28 d:/program files (x86)/microchip/xc32/v2.05/bin/bin/../../lib/gcc/pic32mx/4.8.3/../../../../pic32mx/lib/speed/micromips\libpic32.a(default-on-bootstrap.o)
 .debug_abbrev  0x0000226b       0x28 d:/program files (x86)/microchip/xc32/v2.05/bin/bin/../../lib/gcc/pic32mx/4.8.3/../../../../pic32mx/lib/speed/micromips\libpic32.a(defaultinterrupt.o)

.debug_line     0x00000000     0x2951
 *.elf(.debug_line)
 *(.debug_line)
 .debug_line    0x00000000       0x98 d:/program files (x86)/microchip/xc32/v2.05/bin/bin/../../lib/gcc/pic32mx/4.8.3/../../../../pic32mx/lib/speed/micromips\software-debug-break.o
 .debug_line    0x00000098      0x198 build/default/debug/clock_cfgBits_mm.o
 .debug_line    0x00000230       0x97 build/default/debug/clock_cfgBits_mz.o
 .debug_line    0x000002c7      0x443 build/default/debug/netcom2.o
 .debug_line    0x0000070a      0x1e5 build/default/debug/main.o
 .debug_line    0x000008ef      0x18f build/default/debug/globals.o
 .debug_line    0x00000a7e       0xb2 build/default/debug/timer1.o
 .debug_line    0x00000b30      0x44c build/default/debug/core_fn.o
 .debug_line    0x00000f7c      0x3c2 build/default/debug/_display/ili9341/disp9341.o
 .debug_line    0x0000133e      0x31f build/default/debug/_display/ili9341/disp16_asm.o
 .debug_line    0x0000165d       0x97 build/default/debug/_display/ssd1306/disp1306.o
 .debug_line    0x000016f4      0x162 build/default/debug/_display/graphics.o
 .debug_line    0x00001856       0xeb build/default/debug/rtc.o
 .debug_line    0x00001941      0x10a build/default/debug/change_notif_mm.o
 .debug_line    0x00001a4b      0x277 build/default/debug/spi.o
 .debug_line    0x00001cc2       0xe8 build/default/debug/portWriter.o
 .debug_line    0x00001daa       0x97 build/default/debug/_touchpad/touchXpt2046.o
 .debug_line    0x00001e41       0xea build/default/debug/periph.o
 .debug_line    0x00001f2b       0x5f build/default/debug/periph_fn.o
 .debug_line    0x00001f8a      0x257 build/default/debug/app1.o
 .debug_line    0x000021e1       0xde build/default/debug/app2.o
 .debug_line    0x000022bf      0x18f build/default/debug/app3.o
 .debug_line    0x0000244e      0x1dd build/default/debug/user_apps.o
 .debug_line    0x0000262b       0xb5 d:/program files (x86)/microchip/xc32/v2.05/bin/bin/../../lib/gcc/pic32mx/4.8.3/../../../../pic32mx/lib/speed/micromips\pic32_software_reset-mm.o
 .debug_line    0x000026e0       0xa5 d:/program files (x86)/microchip/xc32/v2.05/bin/bin/../../lib/gcc/pic32mx/4.8.3/../../../../pic32mx/lib/speed/micromips\libpic32.a(default-bootstrap-exception-handler.o)
 .debug_line    0x00002785       0x92 d:/program files (x86)/microchip/xc32/v2.05/bin/bin/../../lib/gcc/pic32mx/4.8.3/../../../../pic32mx/lib/speed/micromips\libpic32.a(default-on-reset.o)
 .debug_line    0x00002817       0x96 d:/program files (x86)/microchip/xc32/v2.05/bin/bin/../../lib/gcc/pic32mx/4.8.3/../../../../pic32mx/lib/speed/micromips\libpic32.a(default-on-bootstrap.o)
 .debug_line    0x000028ad       0xa4 d:/program files (x86)/microchip/xc32/v2.05/bin/bin/../../lib/gcc/pic32mx/4.8.3/../../../../pic32mx/lib/speed/micromips\libpic32.a(defaultinterrupt.o)

.debug_frame    0x00000000     0x14d0
 *.elf(.debug_frame)
 *(.debug_frame)
 .debug_frame   0x00000000       0x20 d:/program files (x86)/microchip/xc32/v2.05/bin/bin/../../lib/gcc/pic32mx/4.8.3/../../../../pic32mx/lib/speed/micromips\software-debug-break.o
 .debug_frame   0x00000020       0x50 build/default/debug/clock_cfgBits_mm.o
 .debug_frame   0x00000070      0x444 build/default/debug/netcom2.o
 .debug_frame   0x000004b4       0xcc build/default/debug/main.o
 .debug_frame   0x00000580       0x88 build/default/debug/globals.o
 .debug_frame   0x00000608      0x45c build/default/debug/_display/ili9341/disp9341.o
 .debug_frame   0x00000a64       0xd0 build/default/debug/_display/graphics.o
 .debug_frame   0x00000b34      0x240 build/default/debug/spi.o
 .debug_frame   0x00000d74      0x104 build/default/debug/portWriter.o
 .debug_frame   0x00000e78       0xf0 build/default/debug/periph.o
 .debug_frame   0x00000f68      0x2c0 build/default/debug/app1.o
 .debug_frame   0x00001228       0xa4 build/default/debug/app2.o
 .debug_frame   0x000012cc       0x9c build/default/debug/app3.o
 .debug_frame   0x00001368       0xdc build/default/debug/user_apps.o
 .debug_frame   0x00001444       0x2c d:/program files (x86)/microchip/xc32/v2.05/bin/bin/../../lib/gcc/pic32mx/4.8.3/../../../../pic32mx/lib/speed/micromips\libpic32.a(default-bootstrap-exception-handler.o)
 .debug_frame   0x00001470       0x20 d:/program files (x86)/microchip/xc32/v2.05/bin/bin/../../lib/gcc/pic32mx/4.8.3/../../../../pic32mx/lib/speed/micromips\libpic32.a(default-on-reset.o)
 .debug_frame   0x00001490       0x20 d:/program files (x86)/microchip/xc32/v2.05/bin/bin/../../lib/gcc/pic32mx/4.8.3/../../../../pic32mx/lib/speed/micromips\libpic32.a(default-on-bootstrap.o)
 .debug_frame   0x000014b0       0x20 d:/program files (x86)/microchip/xc32/v2.05/bin/bin/../../lib/gcc/pic32mx/4.8.3/../../../../pic32mx/lib/speed/micromips\libpic32.a(defaultinterrupt.o)

.debug_str      0x00000000      0x5c0
 *.elf(.debug_str)
 *(.debug_str)
 .debug_str     0x00000000        0x0 d:/program files (x86)/microchip/xc32/v2.05/bin/bin/../../lib/gcc/pic32mx/4.8.3/../../../../pic32mx/lib/speed/micromips\software-debug-break.o
 .debug_str     0x00000000       0x2e build/default/debug/clock_cfgBits_mm.o
 .debug_str     0x0000002e       0x2e build/default/debug/clock_cfgBits_mz.o
 .debug_str     0x0000005c       0x48 build/default/debug/netcom2.o
 .debug_str     0x000000a4       0x6f build/default/debug/main.o
 .debug_str     0x00000113       0x41 build/default/debug/globals.o
 .debug_str     0x00000154      0x14c build/default/debug/_display/ili9341/disp9341.o
 .debug_str     0x000002a0       0x2e build/default/debug/_display/ssd1306/disp1306.o
 .debug_str     0x000002ce       0xb9 build/default/debug/_display/graphics.o
 .debug_str     0x00000387       0x4b build/default/debug/spi.o
 .debug_str     0x000003d2       0x69 build/default/debug/portWriter.o
 .debug_str     0x0000043b       0x2e build/default/debug/_touchpad/touchXpt2046.o
 .debug_str     0x00000469       0x2e build/default/debug/periph.o
 .debug_str     0x00000497       0x7a build/default/debug/app1.o
 .debug_str     0x00000511       0x2e build/default/debug/app2.o
 .debug_str     0x0000053f       0x3d build/default/debug/app3.o
 .debug_str     0x0000057c       0x44 build/default/debug/user_apps.o
 .debug_str     0x000005c0        0x0 d:/program files (x86)/microchip/xc32/v2.05/bin/bin/../../lib/gcc/pic32mx/4.8.3/../../../../pic32mx/lib/speed/micromips\libpic32.a(default-bootstrap-exception-handler.o)
 .debug_str     0x000005c0        0x0 d:/program files (x86)/microchip/xc32/v2.05/bin/bin/../../lib/gcc/pic32mx/4.8.3/../../../../pic32mx/lib/speed/micromips\libpic32.a(default-on-reset.o)
 .debug_str     0x000005c0        0x0 d:/program files (x86)/microchip/xc32/v2.05/bin/bin/../../lib/gcc/pic32mx/4.8.3/../../../../pic32mx/lib/speed/micromips\libpic32.a(default-on-bootstrap.o)
 .debug_str     0x000005c0        0x0 d:/program files (x86)/microchip/xc32/v2.05/bin/bin/../../lib/gcc/pic32mx/4.8.3/../../../../pic32mx/lib/speed/micromips\libpic32.a(defaultinterrupt.o)

.debug_loc      0x00000000     0x587a
 *.elf(.debug_loc)
 *(.debug_loc)
 .debug_loc     0x00000000       0xdc build/default/debug/clock_cfgBits_mm.o
 .debug_loc     0x000000dc     0x1033 build/default/debug/netcom2.o
 .debug_loc     0x0000110f      0x48e build/default/debug/main.o
 .debug_loc     0x0000159d       0xf3 build/default/debug/globals.o
 .debug_loc     0x00001690     0x1b36 build/default/debug/_display/ili9341/disp9341.o
 .debug_loc     0x000031c6      0x45d build/default/debug/_display/graphics.o
 .debug_loc     0x00003623      0x958 build/default/debug/spi.o
 .debug_loc     0x00003f7b      0x50b build/default/debug/portWriter.o
 .debug_loc     0x00004486      0x2f1 build/default/debug/periph.o
 .debug_loc     0x00004777      0xb5d build/default/debug/app1.o
 .debug_loc     0x000052d4      0x1fc build/default/debug/app2.o
 .debug_loc     0x000054d0      0x14b build/default/debug/app3.o
 .debug_loc     0x0000561b      0x233 build/default/debug/user_apps.o
 .debug_loc     0x0000584e       0x2c d:/program files (x86)/microchip/xc32/v2.05/bin/bin/../../lib/gcc/pic32mx/4.8.3/../../../../pic32mx/lib/speed/micromips\libpic32.a(default-bootstrap-exception-handler.o)

.debug_macinfo
 *.elf(.debug_macinfo)
 *(.debug_macinfo)

.debug_weaknames
 *.elf(.debug_weaknames)
 *(.debug_weaknames)

.debug_funcnames
 *.elf(.debug_funcnames)
 *(.debug_funcnames)

.debug_typenames
 *.elf(.debug_typenames)
 *(.debug_typenames)

.debug_varnames
 *.elf(.debug_varnames)
 *(.debug_varnames)

.debug_pubtypes
 *.elf(.debug_pubtypes)
 *(.debug_pubtypes)

.debug_ranges   0x00000000       0x50
 *.elf(.debug_ranges)
 *(.debug_ranges)
 .debug_ranges  0x00000000       0x10 d:/program files (x86)/microchip/xc32/v2.05/bin/bin/../../lib/gcc/pic32mx/4.8.3/../../../../pic32mx/lib/speed/micromips\software-debug-break.o
 .debug_ranges  0x00000010       0x10 d:/program files (x86)/microchip/xc32/v2.05/bin/bin/../../lib/gcc/pic32mx/4.8.3/../../../../pic32mx/lib/speed/micromips\libpic32.a(default-bootstrap-exception-handler.o)
 .debug_ranges  0x00000020       0x10 d:/program files (x86)/microchip/xc32/v2.05/bin/bin/../../lib/gcc/pic32mx/4.8.3/../../../../pic32mx/lib/speed/micromips\libpic32.a(default-on-reset.o)
 .debug_ranges  0x00000030       0x10 d:/program files (x86)/microchip/xc32/v2.05/bin/bin/../../lib/gcc/pic32mx/4.8.3/../../../../pic32mx/lib/speed/micromips\libpic32.a(default-on-bootstrap.o)
 .debug_ranges  0x00000040       0x10 d:/program files (x86)/microchip/xc32/v2.05/bin/bin/../../lib/gcc/pic32mx/4.8.3/../../../../pic32mx/lib/speed/micromips\libpic32.a(defaultinterrupt.o)

.gnu.attributes
                0x00000000       0x10
 *(.gnu.attributes)
 .gnu.attributes
                0x00000000       0x10 d:/program files (x86)/microchip/xc32/v2.05/bin/bin/../../lib/gcc/pic32mx/4.8.3/../../../../pic32mx/lib/speed/micromips\software-debug-break.o
 .gnu.attributes
                0x00000010       0x10 build/default/debug/clock_cfgBits_mm.o
 .gnu.attributes
                0x00000020       0x10 build/default/debug/clock_cfgBits_mz.o
 .gnu.attributes
                0x00000030       0x10 build/default/debug/netcom2.o
 .gnu.attributes
                0x00000040       0x10 build/default/debug/main.o
 .gnu.attributes
                0x00000050       0x10 build/default/debug/globals.o
 .gnu.attributes
                0x00000060       0x10 build/default/debug/_display/ili9341/disp9341.o
 .gnu.attributes
                0x00000070       0x10 build/default/debug/_display/ssd1306/disp1306.o
 .gnu.attributes
                0x00000080       0x10 build/default/debug/_display/graphics.o
 .gnu.attributes
                0x00000090       0x10 build/default/debug/spi.o
 .gnu.attributes
                0x000000a0       0x10 build/default/debug/portWriter.o
 .gnu.attributes
                0x000000b0       0x10 build/default/debug/_touchpad/touchXpt2046.o
 .gnu.attributes
                0x000000c0       0x10 build/default/debug/periph.o
 .gnu.attributes
                0x000000d0       0x10 build/default/debug/app1.o
 .gnu.attributes
                0x000000e0       0x10 build/default/debug/app2.o
 .gnu.attributes
                0x000000f0       0x10 build/default/debug/app3.o
 .gnu.attributes
                0x00000100       0x10 build/default/debug/user_apps.o
 .gnu.attributes
                0x00000110       0x10 d:/program files (x86)/microchip/xc32/v2.05/bin/bin/../../lib/gcc/pic32mx/4.8.3/../../../../pic32mx/lib/speed/micromips\libpic32.a(default-bootstrap-exception-handler.o)
 .gnu.attributes
                0x00000120       0x10 d:/program files (x86)/microchip/xc32/v2.05/bin/bin/../../lib/gcc/pic32mx/4.8.3/../../../../pic32mx/lib/speed/micromips\libpic32.a(default-on-reset.o)
 .gnu.attributes
                0x00000130       0x10 d:/program files (x86)/microchip/xc32/v2.05/bin/bin/../../lib/gcc/pic32mx/4.8.3/../../../../pic32mx/lib/speed/micromips\libpic32.a(default-on-bootstrap.o)
 .gnu.attributes
                0x00000140       0x10 d:/program files (x86)/microchip/xc32/v2.05/bin/bin/../../lib/gcc/pic32mx/4.8.3/../../../../pic32mx/lib/speed/micromips\libpic32.a(defaultinterrupt.o)
LOAD d:/program files (x86)/microchip/xc32/v2.05/bin/bin/../../lib/gcc/pic32mx/4.8.3/speed/micromips\libgcc.a
START GROUP
LOAD d:/program files (x86)/microchip/xc32/v2.05/bin/bin/../../lib/gcc/pic32mx/4.8.3/../../../../pic32mx/lib/speed/micromips\libpic32.a
LOAD d:/program files (x86)/microchip/xc32/v2.05/bin/bin/../../lib/gcc/pic32mx/4.8.3/../../../../pic32mx/lib/speed/micromips\libdebug.a
LOAD d:/program files (x86)/microchip/xc32/v2.05/bin/bin/../../lib/gcc/pic32mx/4.8.3/../../../../pic32mx/lib/speed/micromips\libpic32.a
LOAD d:/program files (x86)/microchip/xc32/v2.05/bin/bin/../../lib/gcc/pic32mx/4.8.3/../../../../pic32mx/lib/speed/micromips\librcfops.a
LOAD d:/program files (x86)/microchip/xc32/v2.05/bin/bin/../../lib/gcc/pic32mx/4.8.3/../../../../pic32mx/lib/speed/micromips\liblega-c.a
LOAD d:/program files (x86)/microchip/xc32/v2.05/bin/bin/../../lib/gcc/pic32mx/4.8.3/../../../../pic32mx/lib/speed/micromips\libm.a
LOAD d:/program files (x86)/microchip/xc32/v2.05/bin/bin/../../lib/gcc/pic32mx/4.8.3/../../../../pic32mx/lib/speed/micromips\libe.a
LOAD d:/program files (x86)/microchip/xc32/v2.05/bin/bin/../../lib/gcc/pic32mx/4.8.3/../../../../pic32mx/lib/speed/micromips\libdsp.a
LOAD d:/program files (x86)/microchip/xc32/v2.05/bin/bin/../../lib/gcc/pic32mx/4.8.3/speed/micromips\libgcc.a
LOAD d:/program files (x86)/microchip/xc32/v2.05/bin/bin/../../lib/gcc/pic32mx/4.8.3/../../../../pic32mx/lib/speed/micromips\libpic32.a
END GROUP
LOAD d:/program files (x86)/microchip/xc32/v2.05/bin/bin/../../lib/gcc/pic32mx/4.8.3/speed/micromips\libgcc.a
OUTPUT(dist/default/debug/BOS2.X.debug.elf elf32-tradlittlemips)
LOAD stack
LOAD data_init

.reginfo        0x00000000       0x18
 .reginfo       0x00000000       0x18 d:/program files (x86)/microchip/xc32/v2.05/bin/bin/../../lib/gcc/pic32mx/4.8.3/../../../../pic32mx/lib/./proc/32MM0256GPM048/crt0_micromips.o

.stack          0x80001068      0x400
 .stack         0x80001068      0x400 stack

.os_stack       0x800059b0     0x2000
 .os_stack      0x800059b0     0x2000 build/default/debug/main.o
                0x800059b0                stack_area

.os             0x800079b0      0x650
 .os            0x800079b0      0x650 build/default/debug/main.o
                0x800079b0                proc_t
                0x80007cb0                regEventTable
                0x80007df0                eventCache
                0x80007f80                netcomDataOut
                0x80007fa0                netcomDataSet
                0x80007fb0                netcomDataGet
                0x80007fc0                proc_t_pos
                0x80007fc4                proc_t_after
                0x80007fc8                proc_t_count
                0x80007fc9                errEventCacheEvID
                0x80007fca                errEventCachePrID
                0x80007fcb                errorProcID
                0x80007fcc                time_ms
                0x80007fd0                pauseCTCount
                0x80007fd4                pauseCTCompare
                0x80007fd8                sleepStatus
                0x80007fd9                idleStatus
                0x80007fda                netcomStratup_ms
                0x80007fdc                netcomTx_ms
                0x80007fde                netcomRx_ms
                0x80007fe0                ballast

.bss            0x8000076c      0x810
 .bss           0x8000076c      0x810 build/default/debug/_display/ili9341/disp9341.o

.data           0x80000f7c       0x6c
 .data          0x80000f7c       0x6c build/default/debug/spi.o
                0x80000f7c                s1
                0x80000f9c                s2
                0x80000fbc                s3
                0x80000fdc                controlStruct

.bss            0x80000fe8       0x30
 .bss           0x80000fe8       0x30 build/default/debug/app1.o

.data           0x80001018       0x20
 .data          0x80001018       0x20 build/default/debug/app1.o
                0x80001018                data

.bss%z1         0x00000000        0x0
 .bss           0x00000000        0x0 d:/program files (x86)/microchip/xc32/v2.05/bin/bin/../../lib/gcc/pic32mx/4.8.3/../../../../pic32mx/lib/speed/micromips\libm.a(sitofp.o)

.data%z2        0x00000000        0x0
 .data          0x00000000        0x0 d:/program files (x86)/microchip/xc32/v2.05/bin/bin/../../lib/gcc/pic32mx/4.8.3/../../../../pic32mx/lib/speed/micromips\libm.a(sitofp.o)

.bss%z3         0x00000000        0x0
 .bss           0x00000000        0x0 d:/program files (x86)/microchip/xc32/v2.05/bin/bin/../../lib/gcc/pic32mx/4.8.3/../../../../pic32mx/lib/speed/micromips\libm.a(fptoli.o)

.data%z4        0x00000000        0x0
 .data          0x00000000        0x0 d:/program files (x86)/microchip/xc32/v2.05/bin/bin/../../lib/gcc/pic32mx/4.8.3/../../../../pic32mx/lib/speed/micromips\libm.a(fptoli.o)

.bss%z5         0x00000000        0x0
 .bss           0x00000000        0x0 d:/program files (x86)/microchip/xc32/v2.05/bin/bin/../../lib/gcc/pic32mx/4.8.3/../../../../pic32mx/lib/speed/micromips\librcfops.a(sprcsubs.o)

.data%z6        0x00000000        0x0
 .data          0x00000000        0x0 d:/program files (x86)/microchip/xc32/v2.05/bin/bin/../../lib/gcc/pic32mx/4.8.3/../../../../pic32mx/lib/speed/micromips\librcfops.a(sprcsubs.o)

.bss%z7         0x00000000        0x0
 .bss           0x00000000        0x0 d:/program files (x86)/microchip/xc32/v2.05/bin/bin/../../lib/gcc/pic32mx/4.8.3/../../../../pic32mx/lib/speed/micromips\librcfops.a(sprcmul.o)

.data%z8        0x00000000        0x0
 .data          0x00000000        0x0 d:/program files (x86)/microchip/xc32/v2.05/bin/bin/../../lib/gcc/pic32mx/4.8.3/../../../../pic32mx/lib/speed/micromips\librcfops.a(sprcmul.o)

.bss%z9         0x00000000        0x0
 .bss           0x00000000        0x0 d:/program files (x86)/microchip/xc32/v2.05/bin/bin/../../lib/gcc/pic32mx/4.8.3/../../../../pic32mx/lib/speed/micromips\librcfops.a(sprcdiv.o)

.data%z10       0x00000000        0x0
 .data          0x00000000        0x0 d:/program files (x86)/microchip/xc32/v2.05/bin/bin/../../lib/gcc/pic32mx/4.8.3/../../../../pic32mx/lib/speed/micromips\librcfops.a(sprcdiv.o)

.bss%z11        0x00000000        0x0
 .bss           0x00000000        0x0 d:/program files (x86)/microchip/xc32/v2.05/bin/bin/../../lib/gcc/pic32mx/4.8.3/../../../../pic32mx/lib/speed/micromips\librcfops.a(sprcadd.o)

.data%z12       0x00000000        0x0
 .data          0x00000000        0x0 d:/program files (x86)/microchip/xc32/v2.05/bin/bin/../../lib/gcc/pic32mx/4.8.3/../../../../pic32mx/lib/speed/micromips\librcfops.a(sprcadd.o)

.bss%z13        0x00000000        0x0
 .bss           0x00000000        0x0 d:/program files (x86)/microchip/xc32/v2.05/bin/bin/../../lib/gcc/pic32mx/4.8.3/../../../../pic32mx/lib/speed/micromips\libpic32.a(defaultinterrupt.o)

.data%z14       0x00000000        0x0
 .data          0x00000000        0x0 d:/program files (x86)/microchip/xc32/v2.05/bin/bin/../../lib/gcc/pic32mx/4.8.3/../../../../pic32mx/lib/speed/micromips\libpic32.a(defaultinterrupt.o)

.bss%z15        0x00000000        0x0
 .bss           0x00000000        0x0 d:/program files (x86)/microchip/xc32/v2.05/bin/bin/../../lib/gcc/pic32mx/4.8.3/../../../../pic32mx/lib/speed/micromips\libpic32.a(vector101.o)

.data%z16       0x00000000        0x0
 .data          0x00000000        0x0 d:/program files (x86)/microchip/xc32/v2.05/bin/bin/../../lib/gcc/pic32mx/4.8.3/../../../../pic32mx/lib/speed/micromips\libpic32.a(vector101.o)

.bss%z17        0x00000000        0x0
 .bss           0x00000000        0x0 d:/program files (x86)/microchip/xc32/v2.05/bin/bin/../../lib/gcc/pic32mx/4.8.3/../../../../pic32mx/lib/speed/micromips\libpic32.a(vector100.o)

.data%z18       0x00000000        0x0
 .data          0x00000000        0x0 d:/program files (x86)/microchip/xc32/v2.05/bin/bin/../../lib/gcc/pic32mx/4.8.3/../../../../pic32mx/lib/speed/micromips\libpic32.a(vector100.o)

.bss%z19        0x00000000        0x0
 .bss           0x00000000        0x0 d:/program files (x86)/microchip/xc32/v2.05/bin/bin/../../lib/gcc/pic32mx/4.8.3/../../../../pic32mx/lib/speed/micromips\libpic32.a(vector99.o)

.data%z20       0x00000000        0x0
 .data          0x00000000        0x0 d:/program files (x86)/microchip/xc32/v2.05/bin/bin/../../lib/gcc/pic32mx/4.8.3/../../../../pic32mx/lib/speed/micromips\libpic32.a(vector99.o)

.bss%z21        0x00000000        0x0
 .bss           0x00000000        0x0 d:/program files (x86)/microchip/xc32/v2.05/bin/bin/../../lib/gcc/pic32mx/4.8.3/../../../../pic32mx/lib/speed/micromips\libpic32.a(vector98.o)

.data%z22       0x00000000        0x0
 .data          0x00000000        0x0 d:/program files (x86)/microchip/xc32/v2.05/bin/bin/../../lib/gcc/pic32mx/4.8.3/../../../../pic32mx/lib/speed/micromips\libpic32.a(vector98.o)

.bss%z23        0x00000000        0x0
 .bss           0x00000000        0x0 d:/program files (x86)/microchip/xc32/v2.05/bin/bin/../../lib/gcc/pic32mx/4.8.3/../../../../pic32mx/lib/speed/micromips\libpic32.a(vector97.o)

.data%z24       0x00000000        0x0
 .data          0x00000000        0x0 d:/program files (x86)/microchip/xc32/v2.05/bin/bin/../../lib/gcc/pic32mx/4.8.3/../../../../pic32mx/lib/speed/micromips\libpic32.a(vector97.o)

.bss%z25        0x00000000        0x0
 .bss           0x00000000        0x0 d:/program files (x86)/microchip/xc32/v2.05/bin/bin/../../lib/gcc/pic32mx/4.8.3/../../../../pic32mx/lib/speed/micromips\libpic32.a(vector96.o)

.data%z26       0x00000000        0x0
 .data          0x00000000        0x0 d:/program files (x86)/microchip/xc32/v2.05/bin/bin/../../lib/gcc/pic32mx/4.8.3/../../../../pic32mx/lib/speed/micromips\libpic32.a(vector96.o)

.bss%z27        0x00000000        0x0
 .bss           0x00000000        0x0 d:/program files (x86)/microchip/xc32/v2.05/bin/bin/../../lib/gcc/pic32mx/4.8.3/../../../../pic32mx/lib/speed/micromips\libpic32.a(vector95.o)

.data%z28       0x00000000        0x0
 .data          0x00000000        0x0 d:/program files (x86)/microchip/xc32/v2.05/bin/bin/../../lib/gcc/pic32mx/4.8.3/../../../../pic32mx/lib/speed/micromips\libpic32.a(vector95.o)

.bss%z29        0x00000000        0x0
 .bss           0x00000000        0x0 d:/program files (x86)/microchip/xc32/v2.05/bin/bin/../../lib/gcc/pic32mx/4.8.3/../../../../pic32mx/lib/speed/micromips\libpic32.a(vector94.o)

.data%z30       0x00000000        0x0
 .data          0x00000000        0x0 d:/program files (x86)/microchip/xc32/v2.05/bin/bin/../../lib/gcc/pic32mx/4.8.3/../../../../pic32mx/lib/speed/micromips\libpic32.a(vector94.o)

.bss%z31        0x00000000        0x0
 .bss           0x00000000        0x0 d:/program files (x86)/microchip/xc32/v2.05/bin/bin/../../lib/gcc/pic32mx/4.8.3/../../../../pic32mx/lib/speed/micromips\libpic32.a(vector93.o)

.data%z32       0x00000000        0x0
 .data          0x00000000        0x0 d:/program files (x86)/microchip/xc32/v2.05/bin/bin/../../lib/gcc/pic32mx/4.8.3/../../../../pic32mx/lib/speed/micromips\libpic32.a(vector93.o)

.bss%z33        0x00000000        0x0
 .bss           0x00000000        0x0 d:/program files (x86)/microchip/xc32/v2.05/bin/bin/../../lib/gcc/pic32mx/4.8.3/../../../../pic32mx/lib/speed/micromips\libpic32.a(vector92.o)

.data%z34       0x00000000        0x0
 .data          0x00000000        0x0 d:/program files (x86)/microchip/xc32/v2.05/bin/bin/../../lib/gcc/pic32mx/4.8.3/../../../../pic32mx/lib/speed/micromips\libpic32.a(vector92.o)

.bss%z35        0x00000000        0x0
 .bss           0x00000000        0x0 d:/program files (x86)/microchip/xc32/v2.05/bin/bin/../../lib/gcc/pic32mx/4.8.3/../../../../pic32mx/lib/speed/micromips\libpic32.a(vector91.o)

.data%z36       0x00000000        0x0
 .data          0x00000000        0x0 d:/program files (x86)/microchip/xc32/v2.05/bin/bin/../../lib/gcc/pic32mx/4.8.3/../../../../pic32mx/lib/speed/micromips\libpic32.a(vector91.o)

.bss%z37        0x00000000        0x0
 .bss           0x00000000        0x0 d:/program files (x86)/microchip/xc32/v2.05/bin/bin/../../lib/gcc/pic32mx/4.8.3/../../../../pic32mx/lib/speed/micromips\libpic32.a(vector90.o)

.data%z38       0x00000000        0x0
 .data          0x00000000        0x0 d:/program files (x86)/microchip/xc32/v2.05/bin/bin/../../lib/gcc/pic32mx/4.8.3/../../../../pic32mx/lib/speed/micromips\libpic32.a(vector90.o)

.bss%z39        0x00000000        0x0
 .bss           0x00000000        0x0 d:/program files (x86)/microchip/xc32/v2.05/bin/bin/../../lib/gcc/pic32mx/4.8.3/../../../../pic32mx/lib/speed/micromips\libpic32.a(vector89.o)

.data%z40       0x00000000        0x0
 .data          0x00000000        0x0 d:/program files (x86)/microchip/xc32/v2.05/bin/bin/../../lib/gcc/pic32mx/4.8.3/../../../../pic32mx/lib/speed/micromips\libpic32.a(vector89.o)

.bss%z41        0x00000000        0x0
 .bss           0x00000000        0x0 d:/program files (x86)/microchip/xc32/v2.05/bin/bin/../../lib/gcc/pic32mx/4.8.3/../../../../pic32mx/lib/speed/micromips\libpic32.a(vector88.o)

.data%z42       0x00000000        0x0
 .data          0x00000000        0x0 d:/program files (x86)/microchip/xc32/v2.05/bin/bin/../../lib/gcc/pic32mx/4.8.3/../../../../pic32mx/lib/speed/micromips\libpic32.a(vector88.o)

.bss%z43        0x00000000        0x0
 .bss           0x00000000        0x0 d:/program files (x86)/microchip/xc32/v2.05/bin/bin/../../lib/gcc/pic32mx/4.8.3/../../../../pic32mx/lib/speed/micromips\libpic32.a(vector87.o)

.data%z44       0x00000000        0x0
 .data          0x00000000        0x0 d:/program files (x86)/microchip/xc32/v2.05/bin/bin/../../lib/gcc/pic32mx/4.8.3/../../../../pic32mx/lib/speed/micromips\libpic32.a(vector87.o)

.bss%z45        0x00000000        0x0
 .bss           0x00000000        0x0 d:/program files (x86)/microchip/xc32/v2.05/bin/bin/../../lib/gcc/pic32mx/4.8.3/../../../../pic32mx/lib/speed/micromips\libpic32.a(vector86.o)

.data%z46       0x00000000        0x0
 .data          0x00000000        0x0 d:/program files (x86)/microchip/xc32/v2.05/bin/bin/../../lib/gcc/pic32mx/4.8.3/../../../../pic32mx/lib/speed/micromips\libpic32.a(vector86.o)

.bss%z47        0x00000000        0x0
 .bss           0x00000000        0x0 d:/program files (x86)/microchip/xc32/v2.05/bin/bin/../../lib/gcc/pic32mx/4.8.3/../../../../pic32mx/lib/speed/micromips\libpic32.a(vector85.o)

.data%z48       0x00000000        0x0
 .data          0x00000000        0x0 d:/program files (x86)/microchip/xc32/v2.05/bin/bin/../../lib/gcc/pic32mx/4.8.3/../../../../pic32mx/lib/speed/micromips\libpic32.a(vector85.o)

.bss%z49        0x00000000        0x0
 .bss           0x00000000        0x0 d:/program files (x86)/microchip/xc32/v2.05/bin/bin/../../lib/gcc/pic32mx/4.8.3/../../../../pic32mx/lib/speed/micromips\libpic32.a(vector84.o)

.data%z50       0x00000000        0x0
 .data          0x00000000        0x0 d:/program files (x86)/microchip/xc32/v2.05/bin/bin/../../lib/gcc/pic32mx/4.8.3/../../../../pic32mx/lib/speed/micromips\libpic32.a(vector84.o)

.bss%z51        0x00000000        0x0
 .bss           0x00000000        0x0 d:/program files (x86)/microchip/xc32/v2.05/bin/bin/../../lib/gcc/pic32mx/4.8.3/../../../../pic32mx/lib/speed/micromips\libpic32.a(vector83.o)

.data%z52       0x00000000        0x0
 .data          0x00000000        0x0 d:/program files (x86)/microchip/xc32/v2.05/bin/bin/../../lib/gcc/pic32mx/4.8.3/../../../../pic32mx/lib/speed/micromips\libpic32.a(vector83.o)

.bss%z53        0x00000000        0x0
 .bss           0x00000000        0x0 d:/program files (x86)/microchip/xc32/v2.05/bin/bin/../../lib/gcc/pic32mx/4.8.3/../../../../pic32mx/lib/speed/micromips\libpic32.a(vector82.o)

.data%z54       0x00000000        0x0
 .data          0x00000000        0x0 d:/program files (x86)/microchip/xc32/v2.05/bin/bin/../../lib/gcc/pic32mx/4.8.3/../../../../pic32mx/lib/speed/micromips\libpic32.a(vector82.o)

.bss%z55        0x00000000        0x0
 .bss           0x00000000        0x0 d:/program files (x86)/microchip/xc32/v2.05/bin/bin/../../lib/gcc/pic32mx/4.8.3/../../../../pic32mx/lib/speed/micromips\libpic32.a(vector81.o)

.data%z56       0x00000000        0x0
 .data          0x00000000        0x0 d:/program files (x86)/microchip/xc32/v2.05/bin/bin/../../lib/gcc/pic32mx/4.8.3/../../../../pic32mx/lib/speed/micromips\libpic32.a(vector81.o)

.bss%z57        0x00000000        0x0
 .bss           0x00000000        0x0 d:/program files (x86)/microchip/xc32/v2.05/bin/bin/../../lib/gcc/pic32mx/4.8.3/../../../../pic32mx/lib/speed/micromips\libpic32.a(vector80.o)

.data%z58       0x00000000        0x0
 .data          0x00000000        0x0 d:/program files (x86)/microchip/xc32/v2.05/bin/bin/../../lib/gcc/pic32mx/4.8.3/../../../../pic32mx/lib/speed/micromips\libpic32.a(vector80.o)

.bss%z59        0x00000000        0x0
 .bss           0x00000000        0x0 d:/program files (x86)/microchip/xc32/v2.05/bin/bin/../../lib/gcc/pic32mx/4.8.3/../../../../pic32mx/lib/speed/micromips\libpic32.a(vector79.o)

.data%z60       0x00000000        0x0
 .data          0x00000000        0x0 d:/program files (x86)/microchip/xc32/v2.05/bin/bin/../../lib/gcc/pic32mx/4.8.3/../../../../pic32mx/lib/speed/micromips\libpic32.a(vector79.o)

.bss%z61        0x00000000        0x0
 .bss           0x00000000        0x0 d:/program files (x86)/microchip/xc32/v2.05/bin/bin/../../lib/gcc/pic32mx/4.8.3/../../../../pic32mx/lib/speed/micromips\libpic32.a(vector78.o)

.data%z62       0x00000000        0x0
 .data          0x00000000        0x0 d:/program files (x86)/microchip/xc32/v2.05/bin/bin/../../lib/gcc/pic32mx/4.8.3/../../../../pic32mx/lib/speed/micromips\libpic32.a(vector78.o)

.bss%z63        0x00000000        0x0
 .bss           0x00000000        0x0 d:/program files (x86)/microchip/xc32/v2.05/bin/bin/../../lib/gcc/pic32mx/4.8.3/../../../../pic32mx/lib/speed/micromips\libpic32.a(vector77.o)

.data%z64       0x00000000        0x0
 .data          0x00000000        0x0 d:/program files (x86)/microchip/xc32/v2.05/bin/bin/../../lib/gcc/pic32mx/4.8.3/../../../../pic32mx/lib/speed/micromips\libpic32.a(vector77.o)

.bss%z65        0x00000000        0x0
 .bss           0x00000000        0x0 d:/program files (x86)/microchip/xc32/v2.05/bin/bin/../../lib/gcc/pic32mx/4.8.3/../../../../pic32mx/lib/speed/micromips\libpic32.a(vector76.o)

.data%z66       0x00000000        0x0
 .data          0x00000000        0x0 d:/program files (x86)/microchip/xc32/v2.05/bin/bin/../../lib/gcc/pic32mx/4.8.3/../../../../pic32mx/lib/speed/micromips\libpic32.a(vector76.o)

.bss%z67        0x00000000        0x0
 .bss           0x00000000        0x0 d:/program files (x86)/microchip/xc32/v2.05/bin/bin/../../lib/gcc/pic32mx/4.8.3/../../../../pic32mx/lib/speed/micromips\libpic32.a(vector75.o)

.data%z68       0x00000000        0x0
 .data          0x00000000        0x0 d:/program files (x86)/microchip/xc32/v2.05/bin/bin/../../lib/gcc/pic32mx/4.8.3/../../../../pic32mx/lib/speed/micromips\libpic32.a(vector75.o)

.bss%z69        0x00000000        0x0
 .bss           0x00000000        0x0 d:/program files (x86)/microchip/xc32/v2.05/bin/bin/../../lib/gcc/pic32mx/4.8.3/../../../../pic32mx/lib/speed/micromips\libpic32.a(vector74.o)

.data%z70       0x00000000        0x0
 .data          0x00000000        0x0 d:/program files (x86)/microchip/xc32/v2.05/bin/bin/../../lib/gcc/pic32mx/4.8.3/../../../../pic32mx/lib/speed/micromips\libpic32.a(vector74.o)

.bss%z71        0x00000000        0x0
 .bss           0x00000000        0x0 d:/program files (x86)/microchip/xc32/v2.05/bin/bin/../../lib/gcc/pic32mx/4.8.3/../../../../pic32mx/lib/speed/micromips\libpic32.a(vector73.o)

.data%z72       0x00000000        0x0
 .data          0x00000000        0x0 d:/program files (x86)/microchip/xc32/v2.05/bin/bin/../../lib/gcc/pic32mx/4.8.3/../../../../pic32mx/lib/speed/micromips\libpic32.a(vector73.o)

.bss%z73        0x00000000        0x0
 .bss           0x00000000        0x0 d:/program files (x86)/microchip/xc32/v2.05/bin/bin/../../lib/gcc/pic32mx/4.8.3/../../../../pic32mx/lib/speed/micromips\libpic32.a(vector72.o)

.data%z74       0x00000000        0x0
 .data          0x00000000        0x0 d:/program files (x86)/microchip/xc32/v2.05/bin/bin/../../lib/gcc/pic32mx/4.8.3/../../../../pic32mx/lib/speed/micromips\libpic32.a(vector72.o)

.bss%z75        0x00000000        0x0
 .bss           0x00000000        0x0 d:/program files (x86)/microchip/xc32/v2.05/bin/bin/../../lib/gcc/pic32mx/4.8.3/../../../../pic32mx/lib/speed/micromips\libpic32.a(vector71.o)

.data%z76       0x00000000        0x0
 .data          0x00000000        0x0 d:/program files (x86)/microchip/xc32/v2.05/bin/bin/../../lib/gcc/pic32mx/4.8.3/../../../../pic32mx/lib/speed/micromips\libpic32.a(vector71.o)

.bss%z77        0x00000000        0x0
 .bss           0x00000000        0x0 d:/program files (x86)/microchip/xc32/v2.05/bin/bin/../../lib/gcc/pic32mx/4.8.3/../../../../pic32mx/lib/speed/micromips\libpic32.a(vector70.o)

.data%z78       0x00000000        0x0
 .data          0x00000000        0x0 d:/program files (x86)/microchip/xc32/v2.05/bin/bin/../../lib/gcc/pic32mx/4.8.3/../../../../pic32mx/lib/speed/micromips\libpic32.a(vector70.o)

.bss%z79        0x00000000        0x0
 .bss           0x00000000        0x0 d:/program files (x86)/microchip/xc32/v2.05/bin/bin/../../lib/gcc/pic32mx/4.8.3/../../../../pic32mx/lib/speed/micromips\libpic32.a(vector69.o)

.data%z80       0x00000000        0x0
 .data          0x00000000        0x0 d:/program files (x86)/microchip/xc32/v2.05/bin/bin/../../lib/gcc/pic32mx/4.8.3/../../../../pic32mx/lib/speed/micromips\libpic32.a(vector69.o)

.bss%z81        0x00000000        0x0
 .bss           0x00000000        0x0 d:/program files (x86)/microchip/xc32/v2.05/bin/bin/../../lib/gcc/pic32mx/4.8.3/../../../../pic32mx/lib/speed/micromips\libpic32.a(vector68.o)

.data%z82       0x00000000        0x0
 .data          0x00000000        0x0 d:/program files (x86)/microchip/xc32/v2.05/bin/bin/../../lib/gcc/pic32mx/4.8.3/../../../../pic32mx/lib/speed/micromips\libpic32.a(vector68.o)

.bss%z83        0x00000000        0x0
 .bss           0x00000000        0x0 d:/program files (x86)/microchip/xc32/v2.05/bin/bin/../../lib/gcc/pic32mx/4.8.3/../../../../pic32mx/lib/speed/micromips\libpic32.a(vector67.o)

.data%z84       0x00000000        0x0
 .data          0x00000000        0x0 d:/program files (x86)/microchip/xc32/v2.05/bin/bin/../../lib/gcc/pic32mx/4.8.3/../../../../pic32mx/lib/speed/micromips\libpic32.a(vector67.o)

.bss%z85        0x00000000        0x0
 .bss           0x00000000        0x0 d:/program files (x86)/microchip/xc32/v2.05/bin/bin/../../lib/gcc/pic32mx/4.8.3/../../../../pic32mx/lib/speed/micromips\libpic32.a(vector66.o)

.data%z86       0x00000000        0x0
 .data          0x00000000        0x0 d:/program files (x86)/microchip/xc32/v2.05/bin/bin/../../lib/gcc/pic32mx/4.8.3/../../../../pic32mx/lib/speed/micromips\libpic32.a(vector66.o)

.bss%z87        0x00000000        0x0
 .bss           0x00000000        0x0 d:/program files (x86)/microchip/xc32/v2.05/bin/bin/../../lib/gcc/pic32mx/4.8.3/../../../../pic32mx/lib/speed/micromips\libpic32.a(vector65.o)

.data%z88       0x00000000        0x0
 .data          0x00000000        0x0 d:/program files (x86)/microchip/xc32/v2.05/bin/bin/../../lib/gcc/pic32mx/4.8.3/../../../../pic32mx/lib/speed/micromips\libpic32.a(vector65.o)

.bss%z89        0x00000000        0x0
 .bss           0x00000000        0x0 d:/program files (x86)/microchip/xc32/v2.05/bin/bin/../../lib/gcc/pic32mx/4.8.3/../../../../pic32mx/lib/speed/micromips\libpic32.a(vector64.o)

.data%z90       0x00000000        0x0
 .data          0x00000000        0x0 d:/program files (x86)/microchip/xc32/v2.05/bin/bin/../../lib/gcc/pic32mx/4.8.3/../../../../pic32mx/lib/speed/micromips\libpic32.a(vector64.o)

.bss%z91        0x00000000        0x0
 .bss           0x00000000        0x0 d:/program files (x86)/microchip/xc32/v2.05/bin/bin/../../lib/gcc/pic32mx/4.8.3/../../../../pic32mx/lib/speed/micromips\libpic32.a(vector63.o)

.data%z92       0x00000000        0x0
 .data          0x00000000        0x0 d:/program files (x86)/microchip/xc32/v2.05/bin/bin/../../lib/gcc/pic32mx/4.8.3/../../../../pic32mx/lib/speed/micromips\libpic32.a(vector63.o)

.bss%z93        0x00000000        0x0
 .bss           0x00000000        0x0 d:/program files (x86)/microchip/xc32/v2.05/bin/bin/../../lib/gcc/pic32mx/4.8.3/../../../../pic32mx/lib/speed/micromips\libpic32.a(vector62.o)

.data%z94       0x00000000        0x0
 .data          0x00000000        0x0 d:/program files (x86)/microchip/xc32/v2.05/bin/bin/../../lib/gcc/pic32mx/4.8.3/../../../../pic32mx/lib/speed/micromips\libpic32.a(vector62.o)

.bss%z95        0x00000000        0x0
 .bss           0x00000000        0x0 d:/program files (x86)/microchip/xc32/v2.05/bin/bin/../../lib/gcc/pic32mx/4.8.3/../../../../pic32mx/lib/speed/micromips\libpic32.a(vector61.o)

.data%z96       0x00000000        0x0
 .data          0x00000000        0x0 d:/program files (x86)/microchip/xc32/v2.05/bin/bin/../../lib/gcc/pic32mx/4.8.3/../../../../pic32mx/lib/speed/micromips\libpic32.a(vector61.o)

.bss%z97        0x00000000        0x0
 .bss           0x00000000        0x0 d:/program files (x86)/microchip/xc32/v2.05/bin/bin/../../lib/gcc/pic32mx/4.8.3/../../../../pic32mx/lib/speed/micromips\libpic32.a(vector60.o)

.data%z98       0x00000000        0x0
 .data          0x00000000        0x0 d:/program files (x86)/microchip/xc32/v2.05/bin/bin/../../lib/gcc/pic32mx/4.8.3/../../../../pic32mx/lib/speed/micromips\libpic32.a(vector60.o)

.bss%z99        0x00000000        0x0
 .bss           0x00000000        0x0 d:/program files (x86)/microchip/xc32/v2.05/bin/bin/../../lib/gcc/pic32mx/4.8.3/../../../../pic32mx/lib/speed/micromips\libpic32.a(vector59.o)

.data%z100      0x00000000        0x0
 .data          0x00000000        0x0 d:/program files (x86)/microchip/xc32/v2.05/bin/bin/../../lib/gcc/pic32mx/4.8.3/../../../../pic32mx/lib/speed/micromips\libpic32.a(vector59.o)

.bss%z101       0x00000000        0x0
 .bss           0x00000000        0x0 d:/program files (x86)/microchip/xc32/v2.05/bin/bin/../../lib/gcc/pic32mx/4.8.3/../../../../pic32mx/lib/speed/micromips\libpic32.a(vector55.o)

.data%z102      0x00000000        0x0
 .data          0x00000000        0x0 d:/program files (x86)/microchip/xc32/v2.05/bin/bin/../../lib/gcc/pic32mx/4.8.3/../../../../pic32mx/lib/speed/micromips\libpic32.a(vector55.o)

.bss%z103       0x00000000        0x0
 .bss           0x00000000        0x0 d:/program files (x86)/microchip/xc32/v2.05/bin/bin/../../lib/gcc/pic32mx/4.8.3/../../../../pic32mx/lib/speed/micromips\libpic32.a(vector54.o)

.data%z104      0x00000000        0x0
 .data          0x00000000        0x0 d:/program files (x86)/microchip/xc32/v2.05/bin/bin/../../lib/gcc/pic32mx/4.8.3/../../../../pic32mx/lib/speed/micromips\libpic32.a(vector54.o)

.bss%z105       0x00000000        0x0
 .bss           0x00000000        0x0 d:/program files (x86)/microchip/xc32/v2.05/bin/bin/../../lib/gcc/pic32mx/4.8.3/../../../../pic32mx/lib/speed/micromips\libpic32.a(vector53.o)

.data%z106      0x00000000        0x0
 .data          0x00000000        0x0 d:/program files (x86)/microchip/xc32/v2.05/bin/bin/../../lib/gcc/pic32mx/4.8.3/../../../../pic32mx/lib/speed/micromips\libpic32.a(vector53.o)

.bss%z107       0x00000000        0x0
 .bss           0x00000000        0x0 d:/program files (x86)/microchip/xc32/v2.05/bin/bin/../../lib/gcc/pic32mx/4.8.3/../../../../pic32mx/lib/speed/micromips\libpic32.a(vector52.o)

.data%z108      0x00000000        0x0
 .data          0x00000000        0x0 d:/program files (x86)/microchip/xc32/v2.05/bin/bin/../../lib/gcc/pic32mx/4.8.3/../../../../pic32mx/lib/speed/micromips\libpic32.a(vector52.o)

.bss%z109       0x00000000        0x0
 .bss           0x00000000        0x0 d:/program files (x86)/microchip/xc32/v2.05/bin/bin/../../lib/gcc/pic32mx/4.8.3/../../../../pic32mx/lib/speed/micromips\libpic32.a(vector51.o)

.data%z110      0x00000000        0x0
 .data          0x00000000        0x0 d:/program files (x86)/microchip/xc32/v2.05/bin/bin/../../lib/gcc/pic32mx/4.8.3/../../../../pic32mx/lib/speed/micromips\libpic32.a(vector51.o)

.bss%z111       0x00000000        0x0
 .bss           0x00000000        0x0 d:/program files (x86)/microchip/xc32/v2.05/bin/bin/../../lib/gcc/pic32mx/4.8.3/../../../../pic32mx/lib/speed/micromips\libpic32.a(vector50.o)

.data%z112      0x00000000        0x0
 .data          0x00000000        0x0 d:/program files (x86)/microchip/xc32/v2.05/bin/bin/../../lib/gcc/pic32mx/4.8.3/../../../../pic32mx/lib/speed/micromips\libpic32.a(vector50.o)

.bss%z113       0x00000000        0x0
 .bss           0x00000000        0x0 d:/program files (x86)/microchip/xc32/v2.05/bin/bin/../../lib/gcc/pic32mx/4.8.3/../../../../pic32mx/lib/speed/micromips\libpic32.a(vector49.o)

.data%z114      0x00000000        0x0
 .data          0x00000000        0x0 d:/program files (x86)/microchip/xc32/v2.05/bin/bin/../../lib/gcc/pic32mx/4.8.3/../../../../pic32mx/lib/speed/micromips\libpic32.a(vector49.o)

.bss%z115       0x00000000        0x0
 .bss           0x00000000        0x0 d:/program files (x86)/microchip/xc32/v2.05/bin/bin/../../lib/gcc/pic32mx/4.8.3/../../../../pic32mx/lib/speed/micromips\libpic32.a(vector48.o)

.data%z116      0x00000000        0x0
 .data          0x00000000        0x0 d:/program files (x86)/microchip/xc32/v2.05/bin/bin/../../lib/gcc/pic32mx/4.8.3/../../../../pic32mx/lib/speed/micromips\libpic32.a(vector48.o)

.bss%z117       0x00000000        0x0
 .bss           0x00000000        0x0 d:/program files (x86)/microchip/xc32/v2.05/bin/bin/../../lib/gcc/pic32mx/4.8.3/../../../../pic32mx/lib/speed/micromips\libpic32.a(vector47.o)

.data%z118      0x00000000        0x0
 .data          0x00000000        0x0 d:/program files (x86)/microchip/xc32/v2.05/bin/bin/../../lib/gcc/pic32mx/4.8.3/../../../../pic32mx/lib/speed/micromips\libpic32.a(vector47.o)

.bss%z119       0x00000000        0x0
 .bss           0x00000000        0x0 d:/program files (x86)/microchip/xc32/v2.05/bin/bin/../../lib/gcc/pic32mx/4.8.3/../../../../pic32mx/lib/speed/micromips\libpic32.a(vector46.o)

.data%z120      0x00000000        0x0
 .data          0x00000000        0x0 d:/program files (x86)/microchip/xc32/v2.05/bin/bin/../../lib/gcc/pic32mx/4.8.3/../../../../pic32mx/lib/speed/micromips\libpic32.a(vector46.o)

.bss%z121       0x00000000        0x0
 .bss           0x00000000        0x0 d:/program files (x86)/microchip/xc32/v2.05/bin/bin/../../lib/gcc/pic32mx/4.8.3/../../../../pic32mx/lib/speed/micromips\libpic32.a(vector44.o)

.data%z122      0x00000000        0x0
 .data          0x00000000        0x0 d:/program files (x86)/microchip/xc32/v2.05/bin/bin/../../lib/gcc/pic32mx/4.8.3/../../../../pic32mx/lib/speed/micromips\libpic32.a(vector44.o)

.bss%z123       0x00000000        0x0
 .bss           0x00000000        0x0 d:/program files (x86)/microchip/xc32/v2.05/bin/bin/../../lib/gcc/pic32mx/4.8.3/../../../../pic32mx/lib/speed/micromips\libpic32.a(vector43.o)

.data%z124      0x00000000        0x0
 .data          0x00000000        0x0 d:/program files (x86)/microchip/xc32/v2.05/bin/bin/../../lib/gcc/pic32mx/4.8.3/../../../../pic32mx/lib/speed/micromips\libpic32.a(vector43.o)

.bss%z125       0x00000000        0x0
 .bss           0x00000000        0x0 d:/program files (x86)/microchip/xc32/v2.05/bin/bin/../../lib/gcc/pic32mx/4.8.3/../../../../pic32mx/lib/speed/micromips\libpic32.a(vector42.o)

.data%z126      0x00000000        0x0
 .data          0x00000000        0x0 d:/program files (x86)/microchip/xc32/v2.05/bin/bin/../../lib/gcc/pic32mx/4.8.3/../../../../pic32mx/lib/speed/micromips\libpic32.a(vector42.o)

.bss%z127       0x00000000        0x0
 .bss           0x00000000        0x0 d:/program files (x86)/microchip/xc32/v2.05/bin/bin/../../lib/gcc/pic32mx/4.8.3/../../../../pic32mx/lib/speed/micromips\libpic32.a(vector41.o)

.data%z128      0x00000000        0x0
 .data          0x00000000        0x0 d:/program files (x86)/microchip/xc32/v2.05/bin/bin/../../lib/gcc/pic32mx/4.8.3/../../../../pic32mx/lib/speed/micromips\libpic32.a(vector41.o)

.bss%z129       0x00000000        0x0
 .bss           0x00000000        0x0 d:/program files (x86)/microchip/xc32/v2.05/bin/bin/../../lib/gcc/pic32mx/4.8.3/../../../../pic32mx/lib/speed/micromips\libpic32.a(vector40.o)

.data%z130      0x00000000        0x0
 .data          0x00000000        0x0 d:/program files (x86)/microchip/xc32/v2.05/bin/bin/../../lib/gcc/pic32mx/4.8.3/../../../../pic32mx/lib/speed/micromips\libpic32.a(vector40.o)

.bss%z131       0x00000000        0x0
 .bss           0x00000000        0x0 d:/program files (x86)/microchip/xc32/v2.05/bin/bin/../../lib/gcc/pic32mx/4.8.3/../../../../pic32mx/lib/speed/micromips\libpic32.a(vector39.o)

.data%z132      0x00000000        0x0
 .data          0x00000000        0x0 d:/program files (x86)/microchip/xc32/v2.05/bin/bin/../../lib/gcc/pic32mx/4.8.3/../../../../pic32mx/lib/speed/micromips\libpic32.a(vector39.o)

.bss%z133       0x00000000        0x0
 .bss           0x00000000        0x0 d:/program files (x86)/microchip/xc32/v2.05/bin/bin/../../lib/gcc/pic32mx/4.8.3/../../../../pic32mx/lib/speed/micromips\libpic32.a(vector38.o)

.data%z134      0x00000000        0x0
 .data          0x00000000        0x0 d:/program files (x86)/microchip/xc32/v2.05/bin/bin/../../lib/gcc/pic32mx/4.8.3/../../../../pic32mx/lib/speed/micromips\libpic32.a(vector38.o)

.bss%z135       0x00000000        0x0
 .bss           0x00000000        0x0 d:/program files (x86)/microchip/xc32/v2.05/bin/bin/../../lib/gcc/pic32mx/4.8.3/../../../../pic32mx/lib/speed/micromips\libpic32.a(vector37.o)

.data%z136      0x00000000        0x0
 .data          0x00000000        0x0 d:/program files (x86)/microchip/xc32/v2.05/bin/bin/../../lib/gcc/pic32mx/4.8.3/../../../../pic32mx/lib/speed/micromips\libpic32.a(vector37.o)

.bss%z137       0x00000000        0x0
 .bss           0x00000000        0x0 d:/program files (x86)/microchip/xc32/v2.05/bin/bin/../../lib/gcc/pic32mx/4.8.3/../../../../pic32mx/lib/speed/micromips\libpic32.a(vector36.o)

.data%z138      0x00000000        0x0
 .data          0x00000000        0x0 d:/program files (x86)/microchip/xc32/v2.05/bin/bin/../../lib/gcc/pic32mx/4.8.3/../../../../pic32mx/lib/speed/micromips\libpic32.a(vector36.o)

.bss%z139       0x00000000        0x0
 .bss           0x00000000        0x0 d:/program files (x86)/microchip/xc32/v2.05/bin/bin/../../lib/gcc/pic32mx/4.8.3/../../../../pic32mx/lib/speed/micromips\libpic32.a(vector35.o)

.data%z140      0x00000000        0x0
 .data          0x00000000        0x0 d:/program files (x86)/microchip/xc32/v2.05/bin/bin/../../lib/gcc/pic32mx/4.8.3/../../../../pic32mx/lib/speed/micromips\libpic32.a(vector35.o)

.bss%z141       0x00000000        0x0
 .bss           0x00000000        0x0 d:/program files (x86)/microchip/xc32/v2.05/bin/bin/../../lib/gcc/pic32mx/4.8.3/../../../../pic32mx/lib/speed/micromips\libpic32.a(vector34.o)

.data%z142      0x00000000        0x0
 .data          0x00000000        0x0 d:/program files (x86)/microchip/xc32/v2.05/bin/bin/../../lib/gcc/pic32mx/4.8.3/../../../../pic32mx/lib/speed/micromips\libpic32.a(vector34.o)

.bss%z143       0x00000000        0x0
 .bss           0x00000000        0x0 d:/program files (x86)/microchip/xc32/v2.05/bin/bin/../../lib/gcc/pic32mx/4.8.3/../../../../pic32mx/lib/speed/micromips\libpic32.a(vector33.o)

.data%z144      0x00000000        0x0
 .data          0x00000000        0x0 d:/program files (x86)/microchip/xc32/v2.05/bin/bin/../../lib/gcc/pic32mx/4.8.3/../../../../pic32mx/lib/speed/micromips\libpic32.a(vector33.o)

.bss%z145       0x00000000        0x0
 .bss           0x00000000        0x0 d:/program files (x86)/microchip/xc32/v2.05/bin/bin/../../lib/gcc/pic32mx/4.8.3/../../../../pic32mx/lib/speed/micromips\libpic32.a(vector31.o)

.data%z146      0x00000000        0x0
 .data          0x00000000        0x0 d:/program files (x86)/microchip/xc32/v2.05/bin/bin/../../lib/gcc/pic32mx/4.8.3/../../../../pic32mx/lib/speed/micromips\libpic32.a(vector31.o)

.bss%z147       0x00000000        0x0
 .bss           0x00000000        0x0 d:/program files (x86)/microchip/xc32/v2.05/bin/bin/../../lib/gcc/pic32mx/4.8.3/../../../../pic32mx/lib/speed/micromips\libpic32.a(vector30.o)

.data%z148      0x00000000        0x0
 .data          0x00000000        0x0 d:/program files (x86)/microchip/xc32/v2.05/bin/bin/../../lib/gcc/pic32mx/4.8.3/../../../../pic32mx/lib/speed/micromips\libpic32.a(vector30.o)

.bss%z149       0x00000000        0x0
 .bss           0x00000000        0x0 d:/program files (x86)/microchip/xc32/v2.05/bin/bin/../../lib/gcc/pic32mx/4.8.3/../../../../pic32mx/lib/speed/micromips\libpic32.a(vector29.o)

.data%z150      0x00000000        0x0
 .data          0x00000000        0x0 d:/program files (x86)/microchip/xc32/v2.05/bin/bin/../../lib/gcc/pic32mx/4.8.3/../../../../pic32mx/lib/speed/micromips\libpic32.a(vector29.o)

.bss%z151       0x00000000        0x0
 .bss           0x00000000        0x0 d:/program files (x86)/microchip/xc32/v2.05/bin/bin/../../lib/gcc/pic32mx/4.8.3/../../../../pic32mx/lib/speed/micromips\libpic32.a(vector28.o)

.data%z152      0x00000000        0x0
 .data          0x00000000        0x0 d:/program files (x86)/microchip/xc32/v2.05/bin/bin/../../lib/gcc/pic32mx/4.8.3/../../../../pic32mx/lib/speed/micromips\libpic32.a(vector28.o)

.bss%z153       0x00000000        0x0
 .bss           0x00000000        0x0 d:/program files (x86)/microchip/xc32/v2.05/bin/bin/../../lib/gcc/pic32mx/4.8.3/../../../../pic32mx/lib/speed/micromips\libpic32.a(vector27.o)

.data%z154      0x00000000        0x0
 .data          0x00000000        0x0 d:/program files (x86)/microchip/xc32/v2.05/bin/bin/../../lib/gcc/pic32mx/4.8.3/../../../../pic32mx/lib/speed/micromips\libpic32.a(vector27.o)

.bss%z155       0x00000000        0x0
 .bss           0x00000000        0x0 d:/program files (x86)/microchip/xc32/v2.05/bin/bin/../../lib/gcc/pic32mx/4.8.3/../../../../pic32mx/lib/speed/micromips\libpic32.a(vector26.o)

.data%z156      0x00000000        0x0
 .data          0x00000000        0x0 d:/program files (x86)/microchip/xc32/v2.05/bin/bin/../../lib/gcc/pic32mx/4.8.3/../../../../pic32mx/lib/speed/micromips\libpic32.a(vector26.o)

.bss%z157       0x00000000        0x0
 .bss           0x00000000        0x0 d:/program files (x86)/microchip/xc32/v2.05/bin/bin/../../lib/gcc/pic32mx/4.8.3/../../../../pic32mx/lib/speed/micromips\libpic32.a(vector25.o)

.data%z158      0x00000000        0x0
 .data          0x00000000        0x0 d:/program files (x86)/microchip/xc32/v2.05/bin/bin/../../lib/gcc/pic32mx/4.8.3/../../../../pic32mx/lib/speed/micromips\libpic32.a(vector25.o)

.bss%z159       0x00000000        0x0
 .bss           0x00000000        0x0 d:/program files (x86)/microchip/xc32/v2.05/bin/bin/../../lib/gcc/pic32mx/4.8.3/../../../../pic32mx/lib/speed/micromips\libpic32.a(vector24.o)

.data%z160      0x00000000        0x0
 .data          0x00000000        0x0 d:/program files (x86)/microchip/xc32/v2.05/bin/bin/../../lib/gcc/pic32mx/4.8.3/../../../../pic32mx/lib/speed/micromips\libpic32.a(vector24.o)

.bss%z161       0x00000000        0x0
 .bss           0x00000000        0x0 d:/program files (x86)/microchip/xc32/v2.05/bin/bin/../../lib/gcc/pic32mx/4.8.3/../../../../pic32mx/lib/speed/micromips\libpic32.a(vector23.o)

.data%z162      0x00000000        0x0
 .data          0x00000000        0x0 d:/program files (x86)/microchip/xc32/v2.05/bin/bin/../../lib/gcc/pic32mx/4.8.3/../../../../pic32mx/lib/speed/micromips\libpic32.a(vector23.o)

.bss%z163       0x00000000        0x0
 .bss           0x00000000        0x0 d:/program files (x86)/microchip/xc32/v2.05/bin/bin/../../lib/gcc/pic32mx/4.8.3/../../../../pic32mx/lib/speed/micromips\libpic32.a(vector22.o)

.data%z164      0x00000000        0x0
 .data          0x00000000        0x0 d:/program files (x86)/microchip/xc32/v2.05/bin/bin/../../lib/gcc/pic32mx/4.8.3/../../../../pic32mx/lib/speed/micromips\libpic32.a(vector22.o)

.bss%z165       0x00000000        0x0
 .bss           0x00000000        0x0 d:/program files (x86)/microchip/xc32/v2.05/bin/bin/../../lib/gcc/pic32mx/4.8.3/../../../../pic32mx/lib/speed/micromips\libpic32.a(vector21.o)

.data%z166      0x00000000        0x0
 .data          0x00000000        0x0 d:/program files (x86)/microchip/xc32/v2.05/bin/bin/../../lib/gcc/pic32mx/4.8.3/../../../../pic32mx/lib/speed/micromips\libpic32.a(vector21.o)

.bss%z167       0x00000000        0x0
 .bss           0x00000000        0x0 d:/program files (x86)/microchip/xc32/v2.05/bin/bin/../../lib/gcc/pic32mx/4.8.3/../../../../pic32mx/lib/speed/micromips\libpic32.a(vector20.o)

.data%z168      0x00000000        0x0
 .data          0x00000000        0x0 d:/program files (x86)/microchip/xc32/v2.05/bin/bin/../../lib/gcc/pic32mx/4.8.3/../../../../pic32mx/lib/speed/micromips\libpic32.a(vector20.o)

.bss%z169       0x00000000        0x0
 .bss           0x00000000        0x0 d:/program files (x86)/microchip/xc32/v2.05/bin/bin/../../lib/gcc/pic32mx/4.8.3/../../../../pic32mx/lib/speed/micromips\libpic32.a(vector19.o)

.data%z170      0x00000000        0x0
 .data          0x00000000        0x0 d:/program files (x86)/microchip/xc32/v2.05/bin/bin/../../lib/gcc/pic32mx/4.8.3/../../../../pic32mx/lib/speed/micromips\libpic32.a(vector19.o)

.bss%z171       0x00000000        0x0
 .bss           0x00000000        0x0 d:/program files (x86)/microchip/xc32/v2.05/bin/bin/../../lib/gcc/pic32mx/4.8.3/../../../../pic32mx/lib/speed/micromips\libpic32.a(vector18.o)

.data%z172      0x00000000        0x0
 .data          0x00000000        0x0 d:/program files (x86)/microchip/xc32/v2.05/bin/bin/../../lib/gcc/pic32mx/4.8.3/../../../../pic32mx/lib/speed/micromips\libpic32.a(vector18.o)

.bss%z173       0x00000000        0x0
 .bss           0x00000000        0x0 d:/program files (x86)/microchip/xc32/v2.05/bin/bin/../../lib/gcc/pic32mx/4.8.3/../../../../pic32mx/lib/speed/micromips\libpic32.a(vector16.o)

.data%z174      0x00000000        0x0
 .data          0x00000000        0x0 d:/program files (x86)/microchip/xc32/v2.05/bin/bin/../../lib/gcc/pic32mx/4.8.3/../../../../pic32mx/lib/speed/micromips\libpic32.a(vector16.o)

.bss%z175       0x00000000        0x0
 .bss           0x00000000        0x0 d:/program files (x86)/microchip/xc32/v2.05/bin/bin/../../lib/gcc/pic32mx/4.8.3/../../../../pic32mx/lib/speed/micromips\libpic32.a(vector15.o)

.data%z176      0x00000000        0x0
 .data          0x00000000        0x0 d:/program files (x86)/microchip/xc32/v2.05/bin/bin/../../lib/gcc/pic32mx/4.8.3/../../../../pic32mx/lib/speed/micromips\libpic32.a(vector15.o)

.bss%z177       0x00000000        0x0
 .bss           0x00000000        0x0 d:/program files (x86)/microchip/xc32/v2.05/bin/bin/../../lib/gcc/pic32mx/4.8.3/../../../../pic32mx/lib/speed/micromips\libpic32.a(vector14.o)

.data%z178      0x00000000        0x0
 .data          0x00000000        0x0 d:/program files (x86)/microchip/xc32/v2.05/bin/bin/../../lib/gcc/pic32mx/4.8.3/../../../../pic32mx/lib/speed/micromips\libpic32.a(vector14.o)

.bss%z179       0x00000000        0x0
 .bss           0x00000000        0x0 d:/program files (x86)/microchip/xc32/v2.05/bin/bin/../../lib/gcc/pic32mx/4.8.3/../../../../pic32mx/lib/speed/micromips\libpic32.a(vector13.o)

.data%z180      0x00000000        0x0
 .data          0x00000000        0x0 d:/program files (x86)/microchip/xc32/v2.05/bin/bin/../../lib/gcc/pic32mx/4.8.3/../../../../pic32mx/lib/speed/micromips\libpic32.a(vector13.o)

.bss%z181       0x00000000        0x0
 .bss           0x00000000        0x0 d:/program files (x86)/microchip/xc32/v2.05/bin/bin/../../lib/gcc/pic32mx/4.8.3/../../../../pic32mx/lib/speed/micromips\libpic32.a(vector12.o)

.data%z182      0x00000000        0x0
 .data          0x00000000        0x0 d:/program files (x86)/microchip/xc32/v2.05/bin/bin/../../lib/gcc/pic32mx/4.8.3/../../../../pic32mx/lib/speed/micromips\libpic32.a(vector12.o)

.bss%z183       0x00000000        0x0
 .bss           0x00000000        0x0 d:/program files (x86)/microchip/xc32/v2.05/bin/bin/../../lib/gcc/pic32mx/4.8.3/../../../../pic32mx/lib/speed/micromips\libpic32.a(vector7.o)

.data%z184      0x00000000        0x0
 .data          0x00000000        0x0 d:/program files (x86)/microchip/xc32/v2.05/bin/bin/../../lib/gcc/pic32mx/4.8.3/../../../../pic32mx/lib/speed/micromips\libpic32.a(vector7.o)

.bss%z185       0x00000000        0x0
 .bss           0x00000000        0x0 d:/program files (x86)/microchip/xc32/v2.05/bin/bin/../../lib/gcc/pic32mx/4.8.3/../../../../pic32mx/lib/speed/micromips\libpic32.a(vector6.o)

.data%z186      0x00000000        0x0
 .data          0x00000000        0x0 d:/program files (x86)/microchip/xc32/v2.05/bin/bin/../../lib/gcc/pic32mx/4.8.3/../../../../pic32mx/lib/speed/micromips\libpic32.a(vector6.o)

.bss%z187       0x00000000        0x0
 .bss           0x00000000        0x0 d:/program files (x86)/microchip/xc32/v2.05/bin/bin/../../lib/gcc/pic32mx/4.8.3/../../../../pic32mx/lib/speed/micromips\libpic32.a(vector5.o)

.data%z188      0x00000000        0x0
 .data          0x00000000        0x0 d:/program files (x86)/microchip/xc32/v2.05/bin/bin/../../lib/gcc/pic32mx/4.8.3/../../../../pic32mx/lib/speed/micromips\libpic32.a(vector5.o)

.bss%z189       0x00000000        0x0
 .bss           0x00000000        0x0 d:/program files (x86)/microchip/xc32/v2.05/bin/bin/../../lib/gcc/pic32mx/4.8.3/../../../../pic32mx/lib/speed/micromips\libpic32.a(vector4.o)

.data%z190      0x00000000        0x0
 .data          0x00000000        0x0 d:/program files (x86)/microchip/xc32/v2.05/bin/bin/../../lib/gcc/pic32mx/4.8.3/../../../../pic32mx/lib/speed/micromips\libpic32.a(vector4.o)

.bss%z191       0x00000000        0x0
 .bss           0x00000000        0x0 d:/program files (x86)/microchip/xc32/v2.05/bin/bin/../../lib/gcc/pic32mx/4.8.3/../../../../pic32mx/lib/speed/micromips\libpic32.a(vector3.o)

.data%z192      0x00000000        0x0
 .data          0x00000000        0x0 d:/program files (x86)/microchip/xc32/v2.05/bin/bin/../../lib/gcc/pic32mx/4.8.3/../../../../pic32mx/lib/speed/micromips\libpic32.a(vector3.o)

.bss%z193       0x00000000        0x0
 .bss           0x00000000        0x0 d:/program files (x86)/microchip/xc32/v2.05/bin/bin/../../lib/gcc/pic32mx/4.8.3/../../../../pic32mx/lib/speed/micromips\libpic32.a(vector2.o)

.data%z194      0x00000000        0x0
 .data          0x00000000        0x0 d:/program files (x86)/microchip/xc32/v2.05/bin/bin/../../lib/gcc/pic32mx/4.8.3/../../../../pic32mx/lib/speed/micromips\libpic32.a(vector2.o)

.bss%z195       0x00000000        0x0
 .bss           0x00000000        0x0 d:/program files (x86)/microchip/xc32/v2.05/bin/bin/../../lib/gcc/pic32mx/4.8.3/../../../../pic32mx/lib/speed/micromips\libpic32.a(vector1.o)

.data%z196      0x00000000        0x0
 .data          0x00000000        0x0 d:/program files (x86)/microchip/xc32/v2.05/bin/bin/../../lib/gcc/pic32mx/4.8.3/../../../../pic32mx/lib/speed/micromips\libpic32.a(vector1.o)

.bss%z197       0x00000000        0x0
 .bss           0x00000000        0x0 d:/program files (x86)/microchip/xc32/v2.05/bin/bin/../../lib/gcc/pic32mx/4.8.3/../../../../pic32mx/lib/speed/micromips\libpic32.a(general-exception.o)

.data%z198      0x00000000        0x0
 .data          0x00000000        0x0 d:/program files (x86)/microchip/xc32/v2.05/bin/bin/../../lib/gcc/pic32mx/4.8.3/../../../../pic32mx/lib/speed/micromips\libpic32.a(general-exception.o)

.bss%z199       0x00000000        0x0
 .bss           0x00000000        0x0 d:/program files (x86)/microchip/xc32/v2.05/bin/bin/../../lib/gcc/pic32mx/4.8.3/../../../../pic32mx/lib/speed/micromips\libpic32.a(default-nmi-handler.o)

.data%z200      0x00000000        0x0
 .data          0x00000000        0x0 d:/program files (x86)/microchip/xc32/v2.05/bin/bin/../../lib/gcc/pic32mx/4.8.3/../../../../pic32mx/lib/speed/micromips\libpic32.a(default-nmi-handler.o)

.bss%z201       0x00000000        0x0
 .bss           0x00000000        0x0 d:/program files (x86)/microchip/xc32/v2.05/bin/bin/../../lib/gcc/pic32mx/4.8.3/../../../../pic32mx/lib/speed/micromips\libpic32.a(default-on-bootstrap.o)

.data%z202      0x00000000        0x0
 .data          0x00000000        0x0 d:/program files (x86)/microchip/xc32/v2.05/bin/bin/../../lib/gcc/pic32mx/4.8.3/../../../../pic32mx/lib/speed/micromips\libpic32.a(default-on-bootstrap.o)

.bss%z203       0x00000000        0x0
 .bss           0x00000000        0x0 d:/program files (x86)/microchip/xc32/v2.05/bin/bin/../../lib/gcc/pic32mx/4.8.3/../../../../pic32mx/lib/speed/micromips\libpic32.a(default-on-reset.o)

.data%z204      0x00000000        0x0
 .data          0x00000000        0x0 d:/program files (x86)/microchip/xc32/v2.05/bin/bin/../../lib/gcc/pic32mx/4.8.3/../../../../pic32mx/lib/speed/micromips\libpic32.a(default-on-reset.o)

.bss%z205       0x00000000        0x0
 .bss           0x00000000        0x0 d:/program files (x86)/microchip/xc32/v2.05/bin/bin/../../lib/gcc/pic32mx/4.8.3/../../../../pic32mx/lib/speed/micromips\libpic32.a(default-bootstrap-exception-handler.o)

.data%z206      0x00000000        0x0
 .data          0x00000000        0x0 d:/program files (x86)/microchip/xc32/v2.05/bin/bin/../../lib/gcc/pic32mx/4.8.3/../../../../pic32mx/lib/speed/micromips\libpic32.a(default-bootstrap-exception-handler.o)

.bss%z207       0x00000000        0x0
 .bss           0x00000000        0x0 d:/program files (x86)/microchip/xc32/v2.05/bin/bin/../../lib/gcc/pic32mx/4.8.3/../../../../pic32mx/lib/./proc/32MM0256GPM048\processor.o

.data%z208      0x00000000        0x0
 .data          0x00000000        0x0 d:/program files (x86)/microchip/xc32/v2.05/bin/bin/../../lib/gcc/pic32mx/4.8.3/../../../../pic32mx/lib/./proc/32MM0256GPM048\processor.o

.bss%z209       0x00000000        0x0
 .bss           0x00000000        0x0 d:/program files (x86)/microchip/xc32/v2.05/bin/bin/../../lib/gcc/pic32mx/4.8.3/../../../../pic32mx/lib/speed/micromips\pic32_software_reset-mm.o

.data%z210      0x00000000        0x0
 .data          0x00000000        0x0 d:/program files (x86)/microchip/xc32/v2.05/bin/bin/../../lib/gcc/pic32mx/4.8.3/../../../../pic32mx/lib/speed/micromips\pic32_software_reset-mm.o

.bss%z211       0x00000000        0x0
 .bss           0x00000000        0x0 d:/program files (x86)/microchip/xc32/v2.05/bin/bin/../../lib/gcc/pic32mx/4.8.3/../../../../pic32mx/lib/./proc/32MM0256GPM048\default_isr_vectors.o

.data%z212      0x00000000        0x0
 .data          0x00000000        0x0 d:/program files (x86)/microchip/xc32/v2.05/bin/bin/../../lib/gcc/pic32mx/4.8.3/../../../../pic32mx/lib/./proc/32MM0256GPM048\default_isr_vectors.o

.bss%z213       0x00000000        0x0
 .bss           0x00000000        0x0 build/default/debug/user_apps.o

.data%z214      0x00000000        0x0
 .data          0x00000000        0x0 build/default/debug/user_apps.o

.bss%z215       0x00000000        0x0
 .bss           0x00000000        0x0 build/default/debug/app3.o

.data%z216      0x00000000        0x0
 .data          0x00000000        0x0 build/default/debug/app3.o

.bss%z217       0x00000000        0x0
 .bss           0x00000000        0x0 build/default/debug/app2.o

.data%z218      0x00000000        0x0
 .data          0x00000000        0x0 build/default/debug/app2.o

.bss%z219       0x00000000        0x0
 .bss           0x00000000        0x0 build/default/debug/periph_fn.o

.data%z220      0x00000000        0x0
 .data          0x00000000        0x0 build/default/debug/periph_fn.o

.bss%z221       0x00000000        0x0
 .bss           0x00000000        0x0 build/default/debug/periph.o

.data%z222      0x00000000        0x0
 .data          0x00000000        0x0 build/default/debug/periph.o

.bss%z223       0x00000000        0x0
 .bss           0x00000000        0x0 build/default/debug/_touchpad/touchXpt2046.o

.data%z224      0x00000000        0x0
 .data          0x00000000        0x0 build/default/debug/_touchpad/touchXpt2046.o

.bss%z225       0x00000000        0x0
 .bss           0x00000000        0x0 build/default/debug/ubtn2.o

.data%z226      0x00000000        0x0
 .data          0x00000000        0x0 build/default/debug/ubtn2.o

.bss%z227       0x00000000        0x0
 .bss           0x00000000        0x0 build/default/debug/portWriter.o

.data%z228      0x00000000        0x0
 .data          0x00000000        0x0 build/default/debug/portWriter.o

.bss%z229       0x00000000        0x0
 .bss           0x00000000        0x0 build/default/debug/spi.o

.bss%z230       0x00000000        0x0
 .bss           0x00000000        0x0 build/default/debug/change_notif_mm.o

.data%z231      0x00000000        0x0
 .data          0x00000000        0x0 build/default/debug/change_notif_mm.o

.bss%z232       0x00000000        0x0
 .bss           0x00000000        0x0 build/default/debug/change_notif_mz.o

.data%z233      0x00000000        0x0
 .data          0x00000000        0x0 build/default/debug/change_notif_mz.o

.bss%z234       0x00000000        0x0
 .bss           0x00000000        0x0 build/default/debug/rtc.o

.data%z235      0x00000000        0x0
 .data          0x00000000        0x0 build/default/debug/rtc.o

.bss%z236       0x00000000        0x0
 .bss           0x00000000        0x0 build/default/debug/_display/graphics.o

.data%z237      0x00000000        0x0
 .data          0x00000000        0x0 build/default/debug/_display/graphics.o

.bss%z238       0x00000000        0x0
 .bss           0x00000000        0x0 build/default/debug/_display/ssd1306/disp1306.o

.data%z239      0x00000000        0x0
 .data          0x00000000        0x0 build/default/debug/_display/ssd1306/disp1306.o

.bss%z240       0x00000000        0x0
 .bss           0x00000000        0x0 build/default/debug/_display/ili9341/disp16_asm.o

.data%z241      0x00000000        0x0
 .data          0x00000000        0x0 build/default/debug/_display/ili9341/disp16_asm.o

.data%z242      0x00000000        0x0
 .data          0x00000000        0x0 build/default/debug/_display/ili9341/disp9341.o

.bss%z243       0x00000000        0x0
 .bss           0x00000000        0x0 build/default/debug/core_fn.o

.data%z244      0x00000000        0x0
 .data          0x00000000        0x0 build/default/debug/core_fn.o

.bss%z245       0x00000000        0x0
 .bss           0x00000000        0x0 build/default/debug/timer1.o

.data%z246      0x00000000        0x0
 .data          0x00000000        0x0 build/default/debug/timer1.o

.bss%z247       0x00000000        0x0
 .bss           0x00000000        0x0 build/default/debug/globals.o

.data%z248      0x00000000        0x0
 .data          0x00000000        0x0 build/default/debug/globals.o

.bss%z249       0x00000000        0x0
 .bss           0x00000000        0x0 build/default/debug/main.o

.data%z250      0x00000000        0x0
 .data          0x00000000        0x0 build/default/debug/main.o

.bss%z251       0x00000000        0x0
 .bss           0x00000000        0x0 build/default/debug/netcom2.o

.data%z252      0x00000000        0x0
 .data          0x00000000        0x0 build/default/debug/netcom2.o

.bss%z253       0x00000000        0x0
 .bss           0x00000000        0x0 build/default/debug/clock_cfgBits_mz.o

.data%z254      0x00000000        0x0
 .data          0x00000000        0x0 build/default/debug/clock_cfgBits_mz.o

.bss%z255       0x00000000        0x0
 .bss           0x00000000        0x0 build/default/debug/clock_cfgBits_mm.o

.data%z256      0x00000000        0x0
 .data          0x00000000        0x0 build/default/debug/clock_cfgBits_mm.o

.bss%z257       0x00000000        0x0
 .bss           0x00000000        0x0 build/default/debug/asm_macro.o

.data%z258      0x00000000        0x0
 .data          0x00000000        0x0 build/default/debug/asm_macro.o

.bss%z259       0x00000000        0x0
 .bss           0x00000000        0x0 d:/program files (x86)/microchip/xc32/v2.05/bin/bin/../../lib/gcc/pic32mx/4.8.3/../../../../pic32mx/lib/speed/micromips\software-debug-break.o

.data%z260      0x00000000        0x0
 .data          0x00000000        0x0 d:/program files (x86)/microchip/xc32/v2.05/bin/bin/../../lib/gcc/pic32mx/4.8.3/../../../../pic32mx/lib/speed/micromips\software-debug-break.o

.bss%z261       0x00000000        0x0
 .bss           0x00000000        0x0 d:/program files (x86)/microchip/xc32/v2.05/bin/bin/../../lib/gcc/pic32mx/4.8.3/../../../../pic32mx/lib/./proc/32MM0256GPM048/crt0_micromips.o

.data%z262      0x00000000        0x0
 .data          0x00000000        0x0 d:/program files (x86)/microchip/xc32/v2.05/bin/bin/../../lib/gcc/pic32mx/4.8.3/../../../../pic32mx/lib/./proc/32MM0256GPM048/crt0_micromips.o

.rodata         0x9d000530     0x5014
 .rodata        0x9d000530     0x2d08 build/default/debug/_display/graphics.o
                0x9d0005c8                font_twcen18
                0x9d0005e8                font_twcen18_data
                0x9d001834                font_twcen22
                0x9d001854                font_twcen22_data
 .rodata        0x9d003238     0x230c build/default/debug/app1.o
                0x9d0032d0                pokus565
                0x9d0032f0                pokus_data

.text           0x9d005544     0x3b44
 .text          0x9d005544     0x201c build/default/debug/_display/ili9341/disp9341.o
                0x9d005545                disp9341_driver
 .text          0x9d007560     0x1b28 build/default/debug/netcom2.o
                0x9d007561                netcomInit
                0x9d00765d                netcomSetData
                0x9d0076ad                netcomGetData
                0x9d007701                netcomRxTimeout
                0x9d007759                netcomNotRespond
                0x9d007785                netcomInitBus
                0x9d008211                UART2Tx_interrupt
                0x9d008755                UART2Rx_interrupt
                0x9d008fcd                UART2Er_interrupt

.text           0x9d009088      0xef8
 .text          0x9d009088      0xef8 build/default/debug/app1.o
                0x9d009089                m1_start

.asm_fn         0x9d009f80      0xe4c
 .asm_fn        0x9d009f80      0xe4c build/default/debug/core_fn.o
                0x9d009f81                initCPU
                0x9d009f85                startupStack
                0x9d009f99                allocStack
                0x9d00a071                clearSystemData
                0x9d00a081                setSrsValue
                0x9d00a0c1                startEvents
                0x9d00a10d                doEvents
                0x9d00a161                doEventsError
                0x9d00a1b5                doEventsL
                0x9d00a25d                getGP
                0x9d00a261                compareTimeMs
                0x9d00a285                pauseEvents
                0x9d00a2c1                getTimeMs
                0x9d00a2cd                checksum16
                0x9d00a2e5                iVector0
                0x9d00a2f5                _general_exception_handler
                0x9d00a3c1                getErrorBehavior
                0x9d00a3f5                checkStackSpace
                0x9d00a44d                getProcID
                0x9d00a475                getProcTableItem
                0x9d00a49d                exitProcess
                0x9d00a4a7                exitProcessID
                0x9d00a4d9                restartProcess
                0x9d00a4e3                restartProcessID
                0x9d00a5a1                clearWDT
                0x9d00a5b1                startWDT
                0x9d00a5c1                pauseWDT
                0x9d00a5d1                pauseCT
                0x9d00a5f9                startCT
                0x9d00a615                regListenerWithVar
                0x9d00a615                regListener
                0x9d00a635                raiseEventID
                0x9d00a675                getRegEvent
                0x9d00a6a5                addRegEvent
                0x9d00a6d5                unregEvent
                0x9d00a739                removeRegEventProcID
                0x9d00a79d                removeEventCacheProcID
                0x9d00a7c9                raiseEvent
                0x9d00a831                raiseEventInt
                0x9d00a889                systemProcess
                0x9d00ab01                setCanSleep
                0x9d00ab51                setCanIdle
                0x9d00aba1                getCanSleepAll
                0x9d00abd1                defragTableW
                0x9d00ac11                defragTableB
                0x9d00ac51                lockSafe
                0x9d00ac6d                strLen
                0x9d00ac89                intToChar
                0x9d00aca1                uintToChar
                0x9d00ad09                byteToChar
                0x9d00ad6d                iVector_spi2Tx
                0x9d00ad89                iVector_UART2Tx
                0x9d00ad9f                iVector_UART2Rx
                0x9d00adb5                iVector_UART2Er

.text           0x9d00adcc      0xa44
 .text          0x9d00adcc      0xa44 build/default/debug/spi.o
                0x9d00adcd                spiInit
                0x9d00aeed                spiGetUsed
                0x9d00af15                spiUse
                0x9d00afa9                spiFree
                0x9d00b001                spiGetActivity
                0x9d00b02d                spiWaitToFinish
                0x9d00b06d                spiExchangeDE
                0x9d00b0cd                spiExchange
                0x9d00b199                spiExchangeModeDE
                0x9d00b201                spiExchangeMode
                0x9d00b2fd                spiGetHwBuffer
                0x9d00b325                spiSetBusMode
                0x9d00b3d9                spiSetSpeed
                0x9d00b445                spiGetSpeed
                0x9d00b479                spiTxInterrupt

.asm_fn         0x9d00b810      0x970
 .asm_fn        0x9d00b810      0x970 build/default/debug/_display/ili9341/disp16_asm.o
                0x9d00b829                setColorMap
                0x9d00b831                setImageSrc
                0x9d00b9c9                fillRectDirect
                0x9d00b9e1                imageToPort
                0x9d00b9e5                imageToBuffer
                0x9d00bcad                setFontSrc
                0x9d00be19                fontCharParam
                0x9d00bec5                RGB16
                0x9d00bed9                correctColor16
                0x9d00bedd                drawLineQuick
                0x9d00c0c5                drawPointQuick

.asm_rtc        0x9d00c180      0x4b0
 .asm_rtc       0x9d00c180      0x4b0 build/default/debug/rtc.o
                0x9d00c181                rtcInit
                0x9d00c2c1                rtcGetTimeBCD
                0x9d00c2dd                rtcGetDateBCD
                0x9d00c2f9                rtcSetTimeBCD
                0x9d00c399                rtcSetDateBCD
                0x9d00c431                rtcGetHalfSecond
                0x9d00c441                rtcRegTimeAlarm
                0x9d00c461                rtcGetHour
                0x9d00c491                rtcGetMinute
                0x9d00c4c1                rtcGetSecond
                0x9d00c4f1                rtcGetYear
                0x9d00c521                rtcGetMonth
                0x9d00c551                rtcGetDay
                0x9d00c581                rtcGetDayOfWeek
                0x9d00c615                iVector_rtc

.text           0x9d00c630      0x7fc
 .text          0x9d00c630      0x418 build/default/debug/_display/graphics.o
                0x9d00c631                initGraphics
                0x9d00c6b5                initFont
                0x9d00c725                setGraphics
                0x9d00c915                drawButton
 .text          0x9d00ca48      0x3e4 build/default/debug/main.o
                0x9d00ca49                main
                0x9d00cb25                regProcess

.text           0x9d00ce2c      0x3e0
 .text          0x9d00ce2c      0x3e0 build/default/debug/user_apps.o
                0x9d00ce2d                pinSetting
                0x9d00d0c5                userAppsStart
                0x9d00d141                userAppError
                0x9d00d175                userAppEventError
                0x9d00d1a1                userAppCheckStackSpace
                0x9d00d1d1                beforeSleep
                0x9d00d1f1                beforeIdle

.asm_cn         0x9d00d20c      0x364
 .asm_cn        0x9d00d20c      0x364 build/default/debug/change_notif_mm.o
                0x9d00d20d                cnStartPortA
                0x9d00d26d                cnStopPortA
                0x9d00d289                iVector_cnPortA
                0x9d00d2bd                cnStartPortB
                0x9d00d31d                cnStopPortB
                0x9d00d339                iVector_cnPortB
                0x9d00d36d                cnStartPortC
                0x9d00d3cd                cnStopPortC
                0x9d00d3e9                iVector_cnPortC
                0x9d00d41d                cnStartPortD
                0x9d00d47d                cnStopPortD
                0x9d00d499                iVector_cnPortD
                0x9d00d4cd                cnEnable
                0x9d00d509                cnDisble
                0x9d00d519                cnRegEvent

.dinit          0x9d00d570      0x320
 .dinit         0x9d00d570      0x320 data_init

.text           0x9d00d890      0x3fc
 .text          0x9d00d890      0x23c build/default/debug/portWriter.o
                0x9d00d891                portWriter_init
 .text          0x9d00dacc      0x1c0 build/default/debug/globals.o
                0x9d00dacd                trap
                0x9d00dae1                softReset
                0x9d00db31                startSleepMode
                0x9d00dbd5                endSleepMode

.text           0x9d00dc8c      0x1b4
 .text          0x9d00dc8c      0x1b4 build/default/debug/periph.o
                0x9d00dc8d                setPortPin
                0x9d00dcb9                clearPortPin
                0x9d00dce5                portInv
                0x9d00dd11                setPin
                0x9d00dd41                clearPin
                0x9d00dd71                invPin
                0x9d00dda1                getPin
                0x9d00dddd                signalizeError

.asm_timer1     0x9d00de40      0x1a8
 .asm_timer1    0x9d00de40      0x1a8 build/default/debug/timer1.o
                0x9d00de41                timer1Init
                0x9d00dec5                systemTimerRegInterval
                0x9d00dee5                iVector_timer1

.text           0x9d00dfe8      0x1a4
 .text          0x9d00dfe8      0x1a4 build/default/debug/clock_cfgBits_mm.o
                0x9d00dfe9                setClock
                0x9d00e0bd                initClock

.text           0x9d000000      0x15c
 .text          0x9d000000      0x15c build/default/debug/app3.o
                0x9d000001                m3_start

.text           0x9d00e18c      0x21c
 .text          0x9d00e18c      0x154 build/default/debug/app2.o
                0x9d00e18d                m2_start
 .text          0x9d00e2e0       0xc8 d:/program files (x86)/microchip/xc32/v2.05/bin/bin/../../lib/gcc/pic32mx/4.8.3/../../../../pic32mx/lib/speed/micromips\librcfops.a(sprcadd.o)
                0x9d00e2e1                fpadd
                0x9d00e2e1                __addsf3
                0x9d00e39d                fpsub
                0x9d00e39d                __subsf3

.text           0x9d00e3a8      0x164
 .text          0x9d00e3a8       0xc8 d:/program files (x86)/microchip/xc32/v2.05/bin/bin/../../lib/gcc/pic32mx/4.8.3/../../../../pic32mx/lib/speed/micromips\librcfops.a(sprcsubs.o)
                0x9d00e3a9                supchk
                0x9d00e3f5                srshft
                0x9d00e41d                srndex
 .text          0x9d00e470       0x9c d:/program files (x86)/microchip/xc32/v2.05/bin/bin/../../lib/gcc/pic32mx/4.8.3/../../../../pic32mx/lib/speed/micromips\librcfops.a(sprcdiv.o)
                0x9d00e471                fpdiv
                0x9d00e471                __divsf3

.rodata         0x9d00e50c      0x130
 .rodata        0x9d00e50c       0x98 build/default/debug/clock_cfgBits_mm.o
                0x9d00e50c                BUS_MODE
                0x9d00e510                WAIT
                0x9d00e514                WRITE_MODE
                0x9d00e518                CLOCK_CFG
                0x9d00e51c                ON_ERROR
                0x9d00e520                CN_STYLE
                0x9d00e524                COLOR
                0x9d00e548                stdColorMap
                0x9d00e568                NETCOM_OUT_STATUS
                0x9d00e578                NOT_RESPONSE_ACTION
                0x9d00e57c                NETCOM_HEADTYPE
                0x9d00e580                NETCOM_EXCEPTION
                0x9d00e588                NETCOM_IN_STATUS
                0x9d00e58c                NETCOM_TXFINISH_FN
                0x9d00e594                PERIPH_TYPE
                0x9d00e598                MODULE_USED
                0x9d00e59c                MODULE_ACTIVITY
                0x9d00e5a0                MODULE_STATE
 .rodata        0x9d00e5a4       0x98 build/default/debug/clock_cfgBits_mz.o

.rodata         0x9d00e63c      0x130
 .rodata        0x9d00e63c       0x98 build/default/debug/netcom2.o
 .rodata        0x9d00e6d4       0x98 build/default/debug/main.o

.rodata         0x9d00e76c      0x130
 .rodata        0x9d00e76c       0x98 build/default/debug/globals.o
 .rodata        0x9d00e804       0x98 build/default/debug/_display/ili9341/disp9341.o

.rodata         0x9d00e89c      0x130
 .rodata        0x9d00e89c       0x98 build/default/debug/_display/ssd1306/disp1306.o
 .rodata        0x9d00e934       0x98 build/default/debug/spi.o

.rodata         0x9d00e9cc      0x130
 .rodata        0x9d00e9cc       0x98 build/default/debug/portWriter.o
 .rodata        0x9d00ea64       0x98 build/default/debug/_touchpad/touchXpt2046.o

.rodata         0x9d00eafc      0x130
 .rodata        0x9d00eafc       0x98 build/default/debug/periph.o
 .rodata        0x9d00eb94       0x98 build/default/debug/app2.o

.rodata         0x9d00ec2c      0x130
 .rodata        0x9d00ec2c       0x98 build/default/debug/app3.o
 .rodata        0x9d00ecc4       0x98 build/default/debug/user_apps.o

.text.general_exception
                0x9d00ed5c       0x80
 .text.general_exception
                0x9d00ed5c       0x80 d:/program files (x86)/microchip/xc32/v2.05/bin/bin/../../lib/gcc/pic32mx/4.8.3/../../../../pic32mx/lib/speed/micromips\libpic32.a(general-exception.o)
                0x9d00ed5d                _general_exception_context

.text.fptoli    0x9d00018c       0x64
 .text.fptoli   0x9d00018c       0x64 d:/program files (x86)/microchip/xc32/v2.05/bin/bin/../../lib/gcc/pic32mx/4.8.3/../../../../pic32mx/lib/speed/micromips\libm.a(fptoli.o)
                0x9d00018d                fptoli
                0x9d00018d                fptosi
                0x9d00018d                __fixsfsi

.asm_fn         0x9d00eddc       0x60
 .asm_fn        0x9d00eddc       0x60 build/default/debug/periph_fn.o
                0x9d00eddd                setPortDigOut
                0x9d00ede9                setPortDigIn
                0x9d00edf5                setPortAnalogIn
                0x9d00ee01                setPortOpenDrain
                0x9d00ee15                setPortPullUp
                0x9d00ee29                setPortPullDown

.text.sitofp    0x9d00ee3c       0x54
 .text.sitofp   0x9d00ee3c       0x54 d:/program files (x86)/microchip/xc32/v2.05/bin/bin/../../lib/gcc/pic32mx/4.8.3/../../../../pic32mx/lib/speed/micromips\libm.a(sitofp.o)
                0x9d00ee3d                __floatsisf
                0x9d00ee3d                litofp
                0x9d00ee3d                sitofp

.text           0x9d00ee90       0x50
 .text          0x9d00ee90       0x50 d:/program files (x86)/microchip/xc32/v2.05/bin/bin/../../lib/gcc/pic32mx/4.8.3/../../../../pic32mx/lib/speed/micromips\librcfops.a(sprcmul.o)
                0x9d00ee91                fpmul
                0x9d00ee91                __mulsf3

.text.main_entry
                0x9d00eee0       0x44
 .text.main_entry
                0x9d00eee0       0x44 d:/program files (x86)/microchip/xc32/v2.05/bin/bin/../../lib/gcc/pic32mx/4.8.3/../../../../pic32mx/lib/./proc/32MM0256GPM048/crt0_micromips.o
                0x9d00ef0b                __crt0_exit

.text           0x9d00ef24       0x40
 .text          0x9d00ef24       0x40 d:/program files (x86)/microchip/xc32/v2.05/bin/bin/../../lib/gcc/pic32mx/4.8.3/../../../../pic32mx/lib/speed/micromips\pic32_software_reset-mm.o
                0x9d00ef25                __pic32_software_reset

.text._bootstrap_exception_handler
                0x9d00ef64       0x34
 .text._bootstrap_exception_handler
                0x9d00ef64       0x34 d:/program files (x86)/microchip/xc32/v2.05/bin/bin/../../lib/gcc/pic32mx/4.8.3/../../../../pic32mx/lib/speed/micromips\libpic32.a(default-bootstrap-exception-handler.o)
                0x9d00ef65                _bootstrap_exception_handler

.vector_default
                0x9d00ef98       0x30
 .vector_default
                0x9d00ef98       0x30 d:/program files (x86)/microchip/xc32/v2.05/bin/bin/../../lib/gcc/pic32mx/4.8.3/../../../../pic32mx/lib/speed/micromips\libpic32.a(defaultinterrupt.o)
                0x9d00ef99                _DefaultInterrupt

.text           0x9d00015c       0x18
 .text          0x9d00015c       0x18 d:/program files (x86)/microchip/xc32/v2.05/bin/bin/../../lib/gcc/pic32mx/4.8.3/../../../../pic32mx/lib/speed/micromips\libpic32.a(default-nmi-handler.o)
                0x9d00015d                _nmi_handler

.text.__exception_handler_break
                0x9d000174        0x4
 .text.__exception_handler_break
                0x9d000174        0x4 d:/program files (x86)/microchip/xc32/v2.05/bin/bin/../../lib/gcc/pic32mx/4.8.3/../../../../pic32mx/lib/speed/micromips\software-debug-break.o
                0x9d000175                __exception_handler_break

.text._on_reset
                0x9d000178        0x4
 .text._on_reset
                0x9d000178        0x4 d:/program files (x86)/microchip/xc32/v2.05/bin/bin/../../lib/gcc/pic32mx/4.8.3/../../../../pic32mx/lib/speed/micromips\libpic32.a(default-on-reset.o)
                0x9d000179                _on_reset

.text._on_bootstrap
                0x9d00017c        0x4
 .text._on_bootstrap
                0x9d00017c        0x4 d:/program files (x86)/microchip/xc32/v2.05/bin/bin/../../lib/gcc/pic32mx/4.8.3/../../../../pic32mx/lib/speed/micromips\libpic32.a(default-on-bootstrap.o)
                0x9d00017d                _on_bootstrap

.text%z263      0x00000000        0x0
 .text          0x00000000        0x0 d:/program files (x86)/microchip/xc32/v2.05/bin/bin/../../lib/gcc/pic32mx/4.8.3/../../../../pic32mx/lib/speed/micromips\libm.a(sitofp.o)

.text%z264      0x00000000        0x0
 .text          0x00000000        0x0 d:/program files (x86)/microchip/xc32/v2.05/bin/bin/../../lib/gcc/pic32mx/4.8.3/../../../../pic32mx/lib/speed/micromips\libm.a(fptoli.o)

.text%z265      0x00000000        0x0
 .text          0x00000000        0x0 d:/program files (x86)/microchip/xc32/v2.05/bin/bin/../../lib/gcc/pic32mx/4.8.3/../../../../pic32mx/lib/speed/micromips\libpic32.a(defaultinterrupt.o)

.text%z266      0x00000000        0x0
 .text          0x00000000        0x0 d:/program files (x86)/microchip/xc32/v2.05/bin/bin/../../lib/gcc/pic32mx/4.8.3/../../../../pic32mx/lib/speed/micromips\libpic32.a(vector101.o)

.text%z267      0x00000000        0x0
 .text          0x00000000        0x0 d:/program files (x86)/microchip/xc32/v2.05/bin/bin/../../lib/gcc/pic32mx/4.8.3/../../../../pic32mx/lib/speed/micromips\libpic32.a(vector100.o)

.text%z268      0x00000000        0x0
 .text          0x00000000        0x0 d:/program files (x86)/microchip/xc32/v2.05/bin/bin/../../lib/gcc/pic32mx/4.8.3/../../../../pic32mx/lib/speed/micromips\libpic32.a(vector99.o)

.text%z269      0x00000000        0x0
 .text          0x00000000        0x0 d:/program files (x86)/microchip/xc32/v2.05/bin/bin/../../lib/gcc/pic32mx/4.8.3/../../../../pic32mx/lib/speed/micromips\libpic32.a(vector98.o)

.text%z270      0x00000000        0x0
 .text          0x00000000        0x0 d:/program files (x86)/microchip/xc32/v2.05/bin/bin/../../lib/gcc/pic32mx/4.8.3/../../../../pic32mx/lib/speed/micromips\libpic32.a(vector97.o)

.text%z271      0x00000000        0x0
 .text          0x00000000        0x0 d:/program files (x86)/microchip/xc32/v2.05/bin/bin/../../lib/gcc/pic32mx/4.8.3/../../../../pic32mx/lib/speed/micromips\libpic32.a(vector96.o)

.text%z272      0x00000000        0x0
 .text          0x00000000        0x0 d:/program files (x86)/microchip/xc32/v2.05/bin/bin/../../lib/gcc/pic32mx/4.8.3/../../../../pic32mx/lib/speed/micromips\libpic32.a(vector95.o)

.text%z273      0x00000000        0x0
 .text          0x00000000        0x0 d:/program files (x86)/microchip/xc32/v2.05/bin/bin/../../lib/gcc/pic32mx/4.8.3/../../../../pic32mx/lib/speed/micromips\libpic32.a(vector94.o)

.text%z274      0x00000000        0x0
 .text          0x00000000        0x0 d:/program files (x86)/microchip/xc32/v2.05/bin/bin/../../lib/gcc/pic32mx/4.8.3/../../../../pic32mx/lib/speed/micromips\libpic32.a(vector93.o)

.text%z275      0x00000000        0x0
 .text          0x00000000        0x0 d:/program files (x86)/microchip/xc32/v2.05/bin/bin/../../lib/gcc/pic32mx/4.8.3/../../../../pic32mx/lib/speed/micromips\libpic32.a(vector92.o)

.text%z276      0x00000000        0x0
 .text          0x00000000        0x0 d:/program files (x86)/microchip/xc32/v2.05/bin/bin/../../lib/gcc/pic32mx/4.8.3/../../../../pic32mx/lib/speed/micromips\libpic32.a(vector91.o)

.text%z277      0x00000000        0x0
 .text          0x00000000        0x0 d:/program files (x86)/microchip/xc32/v2.05/bin/bin/../../lib/gcc/pic32mx/4.8.3/../../../../pic32mx/lib/speed/micromips\libpic32.a(vector90.o)

.text%z278      0x00000000        0x0
 .text          0x00000000        0x0 d:/program files (x86)/microchip/xc32/v2.05/bin/bin/../../lib/gcc/pic32mx/4.8.3/../../../../pic32mx/lib/speed/micromips\libpic32.a(vector89.o)

.text%z279      0x00000000        0x0
 .text          0x00000000        0x0 d:/program files (x86)/microchip/xc32/v2.05/bin/bin/../../lib/gcc/pic32mx/4.8.3/../../../../pic32mx/lib/speed/micromips\libpic32.a(vector88.o)

.text%z280      0x00000000        0x0
 .text          0x00000000        0x0 d:/program files (x86)/microchip/xc32/v2.05/bin/bin/../../lib/gcc/pic32mx/4.8.3/../../../../pic32mx/lib/speed/micromips\libpic32.a(vector87.o)

.text%z281      0x00000000        0x0
 .text          0x00000000        0x0 d:/program files (x86)/microchip/xc32/v2.05/bin/bin/../../lib/gcc/pic32mx/4.8.3/../../../../pic32mx/lib/speed/micromips\libpic32.a(vector86.o)

.text%z282      0x00000000        0x0
 .text          0x00000000        0x0 d:/program files (x86)/microchip/xc32/v2.05/bin/bin/../../lib/gcc/pic32mx/4.8.3/../../../../pic32mx/lib/speed/micromips\libpic32.a(vector85.o)

.text%z283      0x00000000        0x0
 .text          0x00000000        0x0 d:/program files (x86)/microchip/xc32/v2.05/bin/bin/../../lib/gcc/pic32mx/4.8.3/../../../../pic32mx/lib/speed/micromips\libpic32.a(vector84.o)

.text%z284      0x00000000        0x0
 .text          0x00000000        0x0 d:/program files (x86)/microchip/xc32/v2.05/bin/bin/../../lib/gcc/pic32mx/4.8.3/../../../../pic32mx/lib/speed/micromips\libpic32.a(vector83.o)

.text%z285      0x00000000        0x0
 .text          0x00000000        0x0 d:/program files (x86)/microchip/xc32/v2.05/bin/bin/../../lib/gcc/pic32mx/4.8.3/../../../../pic32mx/lib/speed/micromips\libpic32.a(vector82.o)

.text%z286      0x00000000        0x0
 .text          0x00000000        0x0 d:/program files (x86)/microchip/xc32/v2.05/bin/bin/../../lib/gcc/pic32mx/4.8.3/../../../../pic32mx/lib/speed/micromips\libpic32.a(vector81.o)

.text%z287      0x00000000        0x0
 .text          0x00000000        0x0 d:/program files (x86)/microchip/xc32/v2.05/bin/bin/../../lib/gcc/pic32mx/4.8.3/../../../../pic32mx/lib/speed/micromips\libpic32.a(vector80.o)

.text%z288      0x00000000        0x0
 .text          0x00000000        0x0 d:/program files (x86)/microchip/xc32/v2.05/bin/bin/../../lib/gcc/pic32mx/4.8.3/../../../../pic32mx/lib/speed/micromips\libpic32.a(vector79.o)

.text%z289      0x00000000        0x0
 .text          0x00000000        0x0 d:/program files (x86)/microchip/xc32/v2.05/bin/bin/../../lib/gcc/pic32mx/4.8.3/../../../../pic32mx/lib/speed/micromips\libpic32.a(vector78.o)

.text%z290      0x00000000        0x0
 .text          0x00000000        0x0 d:/program files (x86)/microchip/xc32/v2.05/bin/bin/../../lib/gcc/pic32mx/4.8.3/../../../../pic32mx/lib/speed/micromips\libpic32.a(vector77.o)

.text%z291      0x00000000        0x0
 .text          0x00000000        0x0 d:/program files (x86)/microchip/xc32/v2.05/bin/bin/../../lib/gcc/pic32mx/4.8.3/../../../../pic32mx/lib/speed/micromips\libpic32.a(vector76.o)

.text%z292      0x00000000        0x0
 .text          0x00000000        0x0 d:/program files (x86)/microchip/xc32/v2.05/bin/bin/../../lib/gcc/pic32mx/4.8.3/../../../../pic32mx/lib/speed/micromips\libpic32.a(vector75.o)

.text%z293      0x00000000        0x0
 .text          0x00000000        0x0 d:/program files (x86)/microchip/xc32/v2.05/bin/bin/../../lib/gcc/pic32mx/4.8.3/../../../../pic32mx/lib/speed/micromips\libpic32.a(vector74.o)

.text%z294      0x00000000        0x0
 .text          0x00000000        0x0 d:/program files (x86)/microchip/xc32/v2.05/bin/bin/../../lib/gcc/pic32mx/4.8.3/../../../../pic32mx/lib/speed/micromips\libpic32.a(vector73.o)

.text%z295      0x00000000        0x0
 .text          0x00000000        0x0 d:/program files (x86)/microchip/xc32/v2.05/bin/bin/../../lib/gcc/pic32mx/4.8.3/../../../../pic32mx/lib/speed/micromips\libpic32.a(vector72.o)

.text%z296      0x00000000        0x0
 .text          0x00000000        0x0 d:/program files (x86)/microchip/xc32/v2.05/bin/bin/../../lib/gcc/pic32mx/4.8.3/../../../../pic32mx/lib/speed/micromips\libpic32.a(vector71.o)

.text%z297      0x00000000        0x0
 .text          0x00000000        0x0 d:/program files (x86)/microchip/xc32/v2.05/bin/bin/../../lib/gcc/pic32mx/4.8.3/../../../../pic32mx/lib/speed/micromips\libpic32.a(vector70.o)

.text%z298      0x00000000        0x0
 .text          0x00000000        0x0 d:/program files (x86)/microchip/xc32/v2.05/bin/bin/../../lib/gcc/pic32mx/4.8.3/../../../../pic32mx/lib/speed/micromips\libpic32.a(vector69.o)

.text%z299      0x00000000        0x0
 .text          0x00000000        0x0 d:/program files (x86)/microchip/xc32/v2.05/bin/bin/../../lib/gcc/pic32mx/4.8.3/../../../../pic32mx/lib/speed/micromips\libpic32.a(vector68.o)

.text%z300      0x00000000        0x0
 .text          0x00000000        0x0 d:/program files (x86)/microchip/xc32/v2.05/bin/bin/../../lib/gcc/pic32mx/4.8.3/../../../../pic32mx/lib/speed/micromips\libpic32.a(vector67.o)

.text%z301      0x00000000        0x0
 .text          0x00000000        0x0 d:/program files (x86)/microchip/xc32/v2.05/bin/bin/../../lib/gcc/pic32mx/4.8.3/../../../../pic32mx/lib/speed/micromips\libpic32.a(vector66.o)

.text%z302      0x00000000        0x0
 .text          0x00000000        0x0 d:/program files (x86)/microchip/xc32/v2.05/bin/bin/../../lib/gcc/pic32mx/4.8.3/../../../../pic32mx/lib/speed/micromips\libpic32.a(vector65.o)

.text%z303      0x00000000        0x0
 .text          0x00000000        0x0 d:/program files (x86)/microchip/xc32/v2.05/bin/bin/../../lib/gcc/pic32mx/4.8.3/../../../../pic32mx/lib/speed/micromips\libpic32.a(vector64.o)

.text%z304      0x00000000        0x0
 .text          0x00000000        0x0 d:/program files (x86)/microchip/xc32/v2.05/bin/bin/../../lib/gcc/pic32mx/4.8.3/../../../../pic32mx/lib/speed/micromips\libpic32.a(vector63.o)

.text%z305      0x00000000        0x0
 .text          0x00000000        0x0 d:/program files (x86)/microchip/xc32/v2.05/bin/bin/../../lib/gcc/pic32mx/4.8.3/../../../../pic32mx/lib/speed/micromips\libpic32.a(vector62.o)

.text%z306      0x00000000        0x0
 .text          0x00000000        0x0 d:/program files (x86)/microchip/xc32/v2.05/bin/bin/../../lib/gcc/pic32mx/4.8.3/../../../../pic32mx/lib/speed/micromips\libpic32.a(vector61.o)

.text%z307      0x00000000        0x0
 .text          0x00000000        0x0 d:/program files (x86)/microchip/xc32/v2.05/bin/bin/../../lib/gcc/pic32mx/4.8.3/../../../../pic32mx/lib/speed/micromips\libpic32.a(vector60.o)

.text%z308      0x00000000        0x0
 .text          0x00000000        0x0 d:/program files (x86)/microchip/xc32/v2.05/bin/bin/../../lib/gcc/pic32mx/4.8.3/../../../../pic32mx/lib/speed/micromips\libpic32.a(vector59.o)

.text%z309      0x00000000        0x0
 .text          0x00000000        0x0 d:/program files (x86)/microchip/xc32/v2.05/bin/bin/../../lib/gcc/pic32mx/4.8.3/../../../../pic32mx/lib/speed/micromips\libpic32.a(vector55.o)

.text%z310      0x00000000        0x0
 .text          0x00000000        0x0 d:/program files (x86)/microchip/xc32/v2.05/bin/bin/../../lib/gcc/pic32mx/4.8.3/../../../../pic32mx/lib/speed/micromips\libpic32.a(vector54.o)

.text%z311      0x00000000        0x0
 .text          0x00000000        0x0 d:/program files (x86)/microchip/xc32/v2.05/bin/bin/../../lib/gcc/pic32mx/4.8.3/../../../../pic32mx/lib/speed/micromips\libpic32.a(vector53.o)

.text%z312      0x00000000        0x0
 .text          0x00000000        0x0 d:/program files (x86)/microchip/xc32/v2.05/bin/bin/../../lib/gcc/pic32mx/4.8.3/../../../../pic32mx/lib/speed/micromips\libpic32.a(vector52.o)

.text%z313      0x00000000        0x0
 .text          0x00000000        0x0 d:/program files (x86)/microchip/xc32/v2.05/bin/bin/../../lib/gcc/pic32mx/4.8.3/../../../../pic32mx/lib/speed/micromips\libpic32.a(vector51.o)

.text%z314      0x00000000        0x0
 .text          0x00000000        0x0 d:/program files (x86)/microchip/xc32/v2.05/bin/bin/../../lib/gcc/pic32mx/4.8.3/../../../../pic32mx/lib/speed/micromips\libpic32.a(vector50.o)

.text%z315      0x00000000        0x0
 .text          0x00000000        0x0 d:/program files (x86)/microchip/xc32/v2.05/bin/bin/../../lib/gcc/pic32mx/4.8.3/../../../../pic32mx/lib/speed/micromips\libpic32.a(vector49.o)

.text%z316      0x00000000        0x0
 .text          0x00000000        0x0 d:/program files (x86)/microchip/xc32/v2.05/bin/bin/../../lib/gcc/pic32mx/4.8.3/../../../../pic32mx/lib/speed/micromips\libpic32.a(vector48.o)

.text%z317      0x00000000        0x0
 .text          0x00000000        0x0 d:/program files (x86)/microchip/xc32/v2.05/bin/bin/../../lib/gcc/pic32mx/4.8.3/../../../../pic32mx/lib/speed/micromips\libpic32.a(vector47.o)

.text%z318      0x00000000        0x0
 .text          0x00000000        0x0 d:/program files (x86)/microchip/xc32/v2.05/bin/bin/../../lib/gcc/pic32mx/4.8.3/../../../../pic32mx/lib/speed/micromips\libpic32.a(vector46.o)

.text%z319      0x00000000        0x0
 .text          0x00000000        0x0 d:/program files (x86)/microchip/xc32/v2.05/bin/bin/../../lib/gcc/pic32mx/4.8.3/../../../../pic32mx/lib/speed/micromips\libpic32.a(vector44.o)

.text%z320      0x00000000        0x0
 .text          0x00000000        0x0 d:/program files (x86)/microchip/xc32/v2.05/bin/bin/../../lib/gcc/pic32mx/4.8.3/../../../../pic32mx/lib/speed/micromips\libpic32.a(vector43.o)

.text%z321      0x00000000        0x0
 .text          0x00000000        0x0 d:/program files (x86)/microchip/xc32/v2.05/bin/bin/../../lib/gcc/pic32mx/4.8.3/../../../../pic32mx/lib/speed/micromips\libpic32.a(vector42.o)

.text%z322      0x00000000        0x0
 .text          0x00000000        0x0 d:/program files (x86)/microchip/xc32/v2.05/bin/bin/../../lib/gcc/pic32mx/4.8.3/../../../../pic32mx/lib/speed/micromips\libpic32.a(vector41.o)

.text%z323      0x00000000        0x0
 .text          0x00000000        0x0 d:/program files (x86)/microchip/xc32/v2.05/bin/bin/../../lib/gcc/pic32mx/4.8.3/../../../../pic32mx/lib/speed/micromips\libpic32.a(vector40.o)

.text%z324      0x00000000        0x0
 .text          0x00000000        0x0 d:/program files (x86)/microchip/xc32/v2.05/bin/bin/../../lib/gcc/pic32mx/4.8.3/../../../../pic32mx/lib/speed/micromips\libpic32.a(vector39.o)

.text%z325      0x00000000        0x0
 .text          0x00000000        0x0 d:/program files (x86)/microchip/xc32/v2.05/bin/bin/../../lib/gcc/pic32mx/4.8.3/../../../../pic32mx/lib/speed/micromips\libpic32.a(vector38.o)

.text%z326      0x00000000        0x0
 .text          0x00000000        0x0 d:/program files (x86)/microchip/xc32/v2.05/bin/bin/../../lib/gcc/pic32mx/4.8.3/../../../../pic32mx/lib/speed/micromips\libpic32.a(vector37.o)

.text%z327      0x00000000        0x0
 .text          0x00000000        0x0 d:/program files (x86)/microchip/xc32/v2.05/bin/bin/../../lib/gcc/pic32mx/4.8.3/../../../../pic32mx/lib/speed/micromips\libpic32.a(vector36.o)

.text%z328      0x00000000        0x0
 .text          0x00000000        0x0 d:/program files (x86)/microchip/xc32/v2.05/bin/bin/../../lib/gcc/pic32mx/4.8.3/../../../../pic32mx/lib/speed/micromips\libpic32.a(vector35.o)

.text%z329      0x00000000        0x0
 .text          0x00000000        0x0 d:/program files (x86)/microchip/xc32/v2.05/bin/bin/../../lib/gcc/pic32mx/4.8.3/../../../../pic32mx/lib/speed/micromips\libpic32.a(vector34.o)

.text%z330      0x00000000        0x0
 .text          0x00000000        0x0 d:/program files (x86)/microchip/xc32/v2.05/bin/bin/../../lib/gcc/pic32mx/4.8.3/../../../../pic32mx/lib/speed/micromips\libpic32.a(vector33.o)

.text%z331      0x00000000        0x0
 .text          0x00000000        0x0 d:/program files (x86)/microchip/xc32/v2.05/bin/bin/../../lib/gcc/pic32mx/4.8.3/../../../../pic32mx/lib/speed/micromips\libpic32.a(vector31.o)

.text%z332      0x00000000        0x0
 .text          0x00000000        0x0 d:/program files (x86)/microchip/xc32/v2.05/bin/bin/../../lib/gcc/pic32mx/4.8.3/../../../../pic32mx/lib/speed/micromips\libpic32.a(vector30.o)

.text%z333      0x00000000        0x0
 .text          0x00000000        0x0 d:/program files (x86)/microchip/xc32/v2.05/bin/bin/../../lib/gcc/pic32mx/4.8.3/../../../../pic32mx/lib/speed/micromips\libpic32.a(vector29.o)

.text%z334      0x00000000        0x0
 .text          0x00000000        0x0 d:/program files (x86)/microchip/xc32/v2.05/bin/bin/../../lib/gcc/pic32mx/4.8.3/../../../../pic32mx/lib/speed/micromips\libpic32.a(vector28.o)

.text%z335      0x00000000        0x0
 .text          0x00000000        0x0 d:/program files (x86)/microchip/xc32/v2.05/bin/bin/../../lib/gcc/pic32mx/4.8.3/../../../../pic32mx/lib/speed/micromips\libpic32.a(vector27.o)

.text%z336      0x00000000        0x0
 .text          0x00000000        0x0 d:/program files (x86)/microchip/xc32/v2.05/bin/bin/../../lib/gcc/pic32mx/4.8.3/../../../../pic32mx/lib/speed/micromips\libpic32.a(vector26.o)

.text%z337      0x00000000        0x0
 .text          0x00000000        0x0 d:/program files (x86)/microchip/xc32/v2.05/bin/bin/../../lib/gcc/pic32mx/4.8.3/../../../../pic32mx/lib/speed/micromips\libpic32.a(vector25.o)

.text%z338      0x00000000        0x0
 .text          0x00000000        0x0 d:/program files (x86)/microchip/xc32/v2.05/bin/bin/../../lib/gcc/pic32mx/4.8.3/../../../../pic32mx/lib/speed/micromips\libpic32.a(vector24.o)

.text%z339      0x00000000        0x0
 .text          0x00000000        0x0 d:/program files (x86)/microchip/xc32/v2.05/bin/bin/../../lib/gcc/pic32mx/4.8.3/../../../../pic32mx/lib/speed/micromips\libpic32.a(vector23.o)

.text%z340      0x00000000        0x0
 .text          0x00000000        0x0 d:/program files (x86)/microchip/xc32/v2.05/bin/bin/../../lib/gcc/pic32mx/4.8.3/../../../../pic32mx/lib/speed/micromips\libpic32.a(vector22.o)

.text%z341      0x00000000        0x0
 .text          0x00000000        0x0 d:/program files (x86)/microchip/xc32/v2.05/bin/bin/../../lib/gcc/pic32mx/4.8.3/../../../../pic32mx/lib/speed/micromips\libpic32.a(vector21.o)

.text%z342      0x00000000        0x0
 .text          0x00000000        0x0 d:/program files (x86)/microchip/xc32/v2.05/bin/bin/../../lib/gcc/pic32mx/4.8.3/../../../../pic32mx/lib/speed/micromips\libpic32.a(vector20.o)

.text%z343      0x00000000        0x0
 .text          0x00000000        0x0 d:/program files (x86)/microchip/xc32/v2.05/bin/bin/../../lib/gcc/pic32mx/4.8.3/../../../../pic32mx/lib/speed/micromips\libpic32.a(vector19.o)

.text%z344      0x00000000        0x0
 .text          0x00000000        0x0 d:/program files (x86)/microchip/xc32/v2.05/bin/bin/../../lib/gcc/pic32mx/4.8.3/../../../../pic32mx/lib/speed/micromips\libpic32.a(vector18.o)

.text%z345      0x00000000        0x0
 .text          0x00000000        0x0 d:/program files (x86)/microchip/xc32/v2.05/bin/bin/../../lib/gcc/pic32mx/4.8.3/../../../../pic32mx/lib/speed/micromips\libpic32.a(vector16.o)

.text%z346      0x00000000        0x0
 .text          0x00000000        0x0 d:/program files (x86)/microchip/xc32/v2.05/bin/bin/../../lib/gcc/pic32mx/4.8.3/../../../../pic32mx/lib/speed/micromips\libpic32.a(vector15.o)

.text%z347      0x00000000        0x0
 .text          0x00000000        0x0 d:/program files (x86)/microchip/xc32/v2.05/bin/bin/../../lib/gcc/pic32mx/4.8.3/../../../../pic32mx/lib/speed/micromips\libpic32.a(vector14.o)

.text%z348      0x00000000        0x0
 .text          0x00000000        0x0 d:/program files (x86)/microchip/xc32/v2.05/bin/bin/../../lib/gcc/pic32mx/4.8.3/../../../../pic32mx/lib/speed/micromips\libpic32.a(vector13.o)

.text%z349      0x00000000        0x0
 .text          0x00000000        0x0 d:/program files (x86)/microchip/xc32/v2.05/bin/bin/../../lib/gcc/pic32mx/4.8.3/../../../../pic32mx/lib/speed/micromips\libpic32.a(vector12.o)

.text%z350      0x00000000        0x0
 .text          0x00000000        0x0 d:/program files (x86)/microchip/xc32/v2.05/bin/bin/../../lib/gcc/pic32mx/4.8.3/../../../../pic32mx/lib/speed/micromips\libpic32.a(vector7.o)

.text%z351      0x00000000        0x0
 .text          0x00000000        0x0 d:/program files (x86)/microchip/xc32/v2.05/bin/bin/../../lib/gcc/pic32mx/4.8.3/../../../../pic32mx/lib/speed/micromips\libpic32.a(vector6.o)

.text%z352      0x00000000        0x0
 .text          0x00000000        0x0 d:/program files (x86)/microchip/xc32/v2.05/bin/bin/../../lib/gcc/pic32mx/4.8.3/../../../../pic32mx/lib/speed/micromips\libpic32.a(vector5.o)

.text%z353      0x00000000        0x0
 .text          0x00000000        0x0 d:/program files (x86)/microchip/xc32/v2.05/bin/bin/../../lib/gcc/pic32mx/4.8.3/../../../../pic32mx/lib/speed/micromips\libpic32.a(vector4.o)

.text%z354      0x00000000        0x0
 .text          0x00000000        0x0 d:/program files (x86)/microchip/xc32/v2.05/bin/bin/../../lib/gcc/pic32mx/4.8.3/../../../../pic32mx/lib/speed/micromips\libpic32.a(vector3.o)

.text%z355      0x00000000        0x0
 .text          0x00000000        0x0 d:/program files (x86)/microchip/xc32/v2.05/bin/bin/../../lib/gcc/pic32mx/4.8.3/../../../../pic32mx/lib/speed/micromips\libpic32.a(vector2.o)

.text%z356      0x00000000        0x0
 .text          0x00000000        0x0 d:/program files (x86)/microchip/xc32/v2.05/bin/bin/../../lib/gcc/pic32mx/4.8.3/../../../../pic32mx/lib/speed/micromips\libpic32.a(vector1.o)

.text%z357      0x00000000        0x0
 .text          0x00000000        0x0 d:/program files (x86)/microchip/xc32/v2.05/bin/bin/../../lib/gcc/pic32mx/4.8.3/../../../../pic32mx/lib/speed/micromips\libpic32.a(general-exception.o)

.text%z358      0x00000000        0x0
 .text          0x00000000        0x0 d:/program files (x86)/microchip/xc32/v2.05/bin/bin/../../lib/gcc/pic32mx/4.8.3/../../../../pic32mx/lib/speed/micromips\libpic32.a(default-on-bootstrap.o)

.text%z359      0x00000000        0x0
 .text          0x00000000        0x0 d:/program files (x86)/microchip/xc32/v2.05/bin/bin/../../lib/gcc/pic32mx/4.8.3/../../../../pic32mx/lib/speed/micromips\libpic32.a(default-on-reset.o)

.text%z360      0x00000000        0x0
 .text          0x00000000        0x0 d:/program files (x86)/microchip/xc32/v2.05/bin/bin/../../lib/gcc/pic32mx/4.8.3/../../../../pic32mx/lib/speed/micromips\libpic32.a(default-bootstrap-exception-handler.o)

.text%z361      0x00000000        0x0
 .text          0x00000000        0x0 d:/program files (x86)/microchip/xc32/v2.05/bin/bin/../../lib/gcc/pic32mx/4.8.3/../../../../pic32mx/lib/./proc/32MM0256GPM048\processor.o

.text%z362      0x00000000        0x0
 .text          0x00000000        0x0 d:/program files (x86)/microchip/xc32/v2.05/bin/bin/../../lib/gcc/pic32mx/4.8.3/../../../../pic32mx/lib/./proc/32MM0256GPM048\default_isr_vectors.o

.text%z363      0x00000000        0x0
 .text          0x00000000        0x0 build/default/debug/periph_fn.o

.text%z364      0x00000000        0x0
 .text          0x00000000        0x0 build/default/debug/_touchpad/touchXpt2046.o

.text%z365      0x00000000        0x0
 .text          0x00000000        0x0 build/default/debug/ubtn2.o

.text%z366      0x00000000        0x0
 .text          0x00000000        0x0 build/default/debug/change_notif_mm.o

.text%z367      0x00000000        0x0
 .text          0x00000000        0x0 build/default/debug/change_notif_mz.o

.text%z368      0x00000000        0x0
 .text          0x00000000        0x0 build/default/debug/rtc.o

.text%z369      0x00000000        0x0
 .text          0x00000000        0x0 build/default/debug/_display/ssd1306/disp1306.o

.text%z370      0x00000000        0x0
 .text          0x00000000        0x0 build/default/debug/_display/ili9341/disp16_asm.o

.text%z371      0x00000000        0x0
 .text          0x00000000        0x0 build/default/debug/core_fn.o

.text%z372      0x00000000        0x0
 .text          0x00000000        0x0 build/default/debug/timer1.o

.text%z373      0x00000000        0x0
 .text          0x00000000        0x0 build/default/debug/clock_cfgBits_mz.o

.text%z374      0x00000000        0x0
 .text          0x00000000        0x0 build/default/debug/asm_macro.o

.text%z375      0x00000000        0x0
 .text          0x00000000        0x0 d:/program files (x86)/microchip/xc32/v2.05/bin/bin/../../lib/gcc/pic32mx/4.8.3/../../../../pic32mx/lib/speed/micromips\software-debug-break.o

.text%z376      0x00000000        0x0
 .text          0x00000000        0x0 d:/program files (x86)/microchip/xc32/v2.05/bin/bin/../../lib/gcc/pic32mx/4.8.3/../../../../pic32mx/lib/./proc/32MM0256GPM048/crt0_micromips.o
